success!
To server: reg: 8888 wukong need_notify 

seat
button: 5555 2000 2000 
small blind: 6666 2000 2000 
big blind: 2222 2000 2000 
1111 2000 2000 
4444 2000 2000 
7777 2000 2000 
3333 2000 2000 
8888 2000 2000 

blind
6666: 20 
2222: 40 

hold
SPADES 3 
SPADES 4 

inquire
3333 0 2000 2000 all_in 
7777 2000 2000 0 fold 
4444 2000 2000 0 fold 
1111 0 2000 2000 all_in 
2222 1960 2000 40 blind 
6666 1980 2000 20 blind 
total pot: 4060 

3333: 
1111: 
To server: fold 

notify
3333 0 2000 2000 all_in 
7777 2000 2000 0 fold 
4444 2000 2000 0 fold 
1111 0 2000 2000 all_in 
2222 0 2000 2000 all_in 
6666 1980 2000 20 fold 
5555 2000 2000 0 fold 
8888 2000 2000 0 fold 
total pot: 6020 

flop
DIAMONDS 5 
CLUBS 10 
CLUBS 3 

turn
SPADES K 

river
HEARTS K 

showdown
common/ 
DIAMONDS 5 
CLUBS 10 
CLUBS 3 
SPADES K 
HEARTS K 
/common 
1: 2222 HEARTS 10 DIAMONDS Q TWO_PAIR 
3: 1111 CLUBS 4 CLUBS 7 ONE_PAIR 
2: 3333 SPADES 2 SPADES 5 TWO_PAIR 

pot-win
2222: 6020 

seat
button: 6666 1980 2000 
small blind: 2222 6020 2000 
big blind: 1111 2000 0 
4444 2000 2000 
7777 2000 2000 
3333 2000 0 
8888 2000 2000 
5555 2000 2000 

blind
2222: 20 
1111: 40 

hold
SPADES 3 
DIAMONDS 10 

inquire
3333 1960 0 40 call 
7777 1960 2000 40 call 
4444 1960 2000 40 call 
1111 1960 0 40 blind 
2222 6000 2000 20 blind 
total pot: 180 

3333: 
SMALL_FLUSH 0.01999998
7777: 
4444: 
To server: call 

inquire
3333 0 0 2000 all_in 
7777 1960 2000 40 fold 
4444 1960 2000 40 fold 
1111 0 0 2000 all_in 
2222 5980 2000 40 call 
6666 1940 2000 40 call 
5555 1960 2000 40 call 
8888 1960 2000 40 call 
total pot: 4240 

3333: 
SMALL_FLUSH 1.0
1111: 
SMALL_FLUSH 1.0
2222: 
HIGH_SINGLE 0.006644547
6666: 
5555: 
To server: fold 

notify
3333 0 0 2000 all_in 
7777 1960 2000 40 fold 
4444 1960 2000 40 fold 
1111 0 0 2000 all_in 
2222 4020 2000 2000 call 
6666 1940 2000 40 fold 
5555 1960 2000 40 fold 
8888 1960 2000 40 fold 
total pot: 6200 

flop
DIAMONDS K 
HEARTS J 
DIAMONDS 3 

turn
HEARTS Q 

river
DIAMONDS 4 

showdown
common/ 
DIAMONDS K 
HEARTS J 
DIAMONDS 3 
HEARTS Q 
DIAMONDS 4 
/common 
3: 2222 SPADES 5 HEARTS 2 HIGH_CARD 
1: 1111 CLUBS K HEARTS 8 ONE_PAIR 
2: 3333 HEARTS 9 SPADES 7 HIGH_CARD 

pot-win
1111: 6200 

seat
button: 2222 4020 2000 
small blind: 1111 6200 0 
big blind: 4444 1960 2000 
7777 1960 2000 
8888 1960 2000 
5555 1960 2000 
6666 1940 2000 

blind
1111: 20 
4444: 40 

hold
DIAMONDS A 
CLUBS 2 

inquire
7777 1920 2000 40 call 
4444 1920 2000 40 blind 
1111 6180 0 20 blind 
total pot: 100 

7777: 
To server: call 

inquire
7777 1920 2000 40 fold 
4444 1920 2000 40 fold 
1111 0 0 6200 all_in 
2222 3980 2000 40 call 
6666 1900 2000 40 call 
5555 1920 2000 40 call 
8888 1920 2000 40 call 
total pot: 6440 

1111: 
SMALL_FLUSH 0.5
LOW_SINGLE 0.5
2222: 
LOW_SINGLE 0.029950261
6666: 
5555: 
To server: fold 

notify
7777 1920 2000 40 fold 
4444 1920 2000 40 fold 
1111 0 0 6200 all_in 
2222 0 2000 4020 all_in 
6666 1900 2000 40 fold 
5555 1920 2000 40 fold 
8888 1920 2000 40 fold 
total pot: 10420 

flop
SPADES 8 
CLUBS 8 
HEARTS 7 

turn
CLUBS J 

river
SPADES 6 

showdown
common/ 
SPADES 8 
CLUBS 8 
HEARTS 7 
CLUBS J 
SPADES 6 
/common 
2: 1111 HEARTS 2 DIAMONDS 4 ONE_PAIR 
1: 2222 CLUBS 6 HEARTS 10 TWO_PAIR 

pot-win
2222: 8240 
1111: 2180 

seat
button: 1111 2180 0 
small blind: 4444 1920 2000 
big blind: 7777 1920 2000 
8888 1920 2000 
5555 1920 2000 
6666 1900 2000 
2222 8240 2000 

blind
4444: 20 
7777: 40 

hold
SPADES 5 
SPADES 6 

inquire
7777 1880 2000 40 blind 
4444 1900 2000 20 blind 
total pot: 60 

To server: call 

inquire
7777 1880 2000 40 fold 
4444 1900 2000 20 fold 
1111 0 0 2180 all_in 
2222 8200 2000 40 call 
6666 1860 2000 40 call 
5555 1880 2000 40 call 
8888 1880 2000 40 call 
total pot: 2400 

1111: 
LOW_SINGLE 0.6666667
SMALL_FLUSH 0.33333334
2222: 
LOW_SINGLE 0.0072876215
6666: 
5555: 
To server: fold 

notify
7777 1880 2000 40 fold 
4444 1900 2000 20 fold 
1111 0 0 2180 all_in 
2222 6060 2000 2180 call 
6666 1860 2000 40 fold 
5555 1880 2000 40 fold 
8888 1880 2000 40 fold 
total pot: 4540 

flop
HEARTS 9 
SPADES 4 
HEARTS 3 

turn
CLUBS 8 

river
CLUBS 10 

showdown
common/ 
HEARTS 9 
SPADES 4 
HEARTS 3 
CLUBS 8 
CLUBS 10 
/common 
2: 2222 CLUBS 5 HEARTS 6 HIGH_CARD 
1: 1111 CLUBS 7 SPADES K HIGH_CARD 

pot-win
1111: 4540 

seat
button: 4444 1900 2000 
small blind: 7777 1880 2000 
big blind: 8888 1880 2000 
5555 1880 2000 
6666 1860 2000 
2222 6060 2000 
1111 4540 0 

blind
7777: 20 
8888: 40 

hold
CLUBS K 
CLUBS 8 

inquire
7777 1860 2000 20 fold 
4444 1900 2000 0 fold 
1111 0 0 4540 all_in 
2222 6020 2000 40 call 
6666 1820 2000 40 call 
5555 1840 2000 40 call 
8888 1840 2000 40 blind 
total pot: 4720 

1111: 
LOW_SINGLE 0.75
SMALL_FLUSH 0.25
2222: 
LOW_SINGLE 0.012401164
6666: 
5555: 
To server: fold 

notify
7777 1860 2000 20 fold 
4444 1900 2000 0 fold 
1111 0 0 4540 all_in 
2222 1520 2000 4540 call 
6666 1820 2000 40 fold 
5555 1840 2000 40 fold 
8888 1840 2000 40 fold 
total pot: 9220 

flop
HEARTS 6 
DIAMONDS 3 
HEARTS 3 

turn
HEARTS 2 

river
CLUBS 2 

showdown
common/ 
HEARTS 6 
DIAMONDS 3 
HEARTS 3 
HEARTS 2 
CLUBS 2 
/common 
1: 2222 SPADES J CLUBS A TWO_PAIR 
1: 1111 SPADES A HEARTS 7 TWO_PAIR 

pot-win
2222: 4610 
1111: 4610 

seat
button: 7777 1860 2000 
small blind: 8888 1840 2000 
big blind: 5555 1840 2000 
6666 1820 2000 
2222 6130 2000 
1111 4610 0 
4444 1900 2000 

blind
8888: 20 
5555: 40 

hold
DIAMONDS 4 
DIAMONDS 10 

inquire
7777 1860 2000 0 fold 
4444 1900 2000 0 fold 
1111 0 0 4610 all_in 
2222 6090 2000 40 call 
6666 1780 2000 40 call 
5555 1800 2000 40 blind 
8888 1820 2000 20 blind 
total pot: 4750 

1111: 
LOW_SINGLE 0.8
SMALL_FLUSH 0.2
2222: 
LOW_SINGLE 0.012259483
6666: 
To server: fold 

notify
7777 1860 2000 0 fold 
4444 1900 2000 0 fold 
1111 0 0 4610 all_in 
2222 1520 2000 4610 call 
6666 1780 2000 40 fold 
5555 1800 2000 40 fold 
8888 1820 2000 20 fold 
total pot: 9320 

flop
HEARTS 4 
DIAMONDS 8 
CLUBS 7 

turn
SPADES 8 

river
HEARTS 6 

showdown
common/ 
HEARTS 4 
DIAMONDS 8 
CLUBS 7 
SPADES 8 
HEARTS 6 
/common 
1: 2222 SPADES 6 CLUBS 9 TWO_PAIR 
2: 1111 DIAMONDS 2 CLUBS J ONE_PAIR 

pot-win
2222: 9320 

seat
button: 8888 1820 2000 
small blind: 5555 1800 2000 
big blind: 6666 1780 2000 
2222 10840 2000 
4444 1900 2000 
7777 1860 2000 

blind
5555: 20 
6666: 40 

hold
CLUBS 2 
HEARTS K 

inquire
7777 1820 2000 40 call 
4444 1860 2000 40 call 
2222 10800 2000 40 call 
6666 1740 2000 40 blind 
5555 1780 2000 20 blind 
total pot: 180 

7777: 
4444: 
2222: 
LOW_SINGLE 0.0062841177
To server: call 

notify
7777 1820 2000 40 call 
4444 1860 2000 40 call 
2222 10800 2000 40 call 
6666 1740 2000 40 check 
5555 1760 2000 40 call 
8888 1780 2000 40 call 
total pot: 240 

flop
CLUBS 8 
CLUBS 10 
DIAMONDS Q 

inquire
7777 1820 2000 40 check 
4444 1860 2000 40 check 
2222 10800 2000 40 check 
6666 1740 2000 40 check 
5555 1760 2000 40 check 
8888 1780 2000 40 call 
total pot: 240 

7777: 
4444: 
2222: 
LOW_ONE_PAIR 0.0012300214
HIGH_ONE_PAIR 6.150107E-4
STRAIGHT_1 0.0012300214
HIGH_CARD 6.150107E-4
6666: 
5555: 
To server: call 

turn
DIAMONDS 7 

inquire
7777 1820 2000 40 check 
4444 1860 2000 40 check 
2222 10800 2000 40 check 
6666 1740 2000 40 check 
5555 1760 2000 40 check 
8888 1780 2000 40 check 
total pot: 240 

7777: 
4444: 
2222: 
STRAIGHT_1 6.150107E-4
HIGH_CARD 6.150107E-4
HIGH_ONE_PAIR 6.150107E-4
LOW_ONE_PAIR 0.001845032
6666: 
5555: 
To server: call 

river
HEARTS 2 

inquire
7777 1820 2000 40 check 
4444 1860 2000 40 check 
2222 10800 2000 40 check 
6666 1740 2000 40 fold 
5555 1760 2000 40 check 
8888 1780 2000 40 check 
total pot: 240 

7777: 
4444: 
2222: 
HIGH_CARD 0.0012300214
HIGH_TWO_PAIR 6.150107E-4
LOW_TWO_PAIR 0.001845032
5555: 
To server: call 

showdown
common/ 
CLUBS 8 
CLUBS 10 
DIAMONDS Q 
DIAMONDS 7 
HEARTS 2 
/common 
1: 5555 CLUBS 4 CLUBS Q ONE_PAIR 
5: 2222 HEARTS 6 SPADES 4 HIGH_CARD 
2: 4444 DIAMONDS J HEARTS 7 ONE_PAIR 
3: 7777 SPADES 3 DIAMONDS 3 ONE_PAIR 
4: 8888 CLUBS 2 HEARTS K ONE_PAIR 

pot-win
5555: 240 

seat
button: 5555 2000 2000 
small blind: 6666 1740 2000 
big blind: 2222 10800 2000 
4444 1860 2000 
7777 1820 2000 
8888 1780 2000 

blind
6666: 20 
2222: 40 

hold
CLUBS 5 
DIAMONDS A 

inquire
7777 1780 2000 40 call 
4444 1820 2000 40 call 
2222 10760 2000 40 blind 
6666 1720 2000 20 blind 
total pot: 140 

7777: 
SMALL_PAIR 0.9784946
4444: 
LOW_SINGLE 0.9789474
To server: call 

notify
7777 1780 2000 40 call 
4444 1820 2000 40 call 
2222 10760 2000 40 check 
6666 1700 2000 40 call 
5555 1960 2000 40 call 
8888 1740 2000 40 call 
total pot: 240 

flop
CLUBS A 
CLUBS 6 
CLUBS 3 

inquire
7777 1780 2000 40 fold 
4444 1420 2000 440 call 
2222 10360 2000 440 call 
6666 1300 2000 440 raise 
5555 1960 2000 40 call 
8888 1740 2000 40 call 
total pot: 1440 

4444: 
STRAIGHT_1 0.0
2222: 
HIGH_CARD 0.08148146
6666: 
5555: 
HIGH_ONE_PAIR 0.0
To server: call 

turn
DIAMONDS 10 

inquire
7777 1780 2000 40 fold 
4444 1420 2000 440 check 
2222 10360 2000 440 check 
6666 1300 2000 440 check 
5555 1960 2000 40 fold 
8888 1340 2000 440 call 
total pot: 1840 

4444: 
LOW_ONE_PAIR 0.0
2222: 
STRAIGHT_1 0.08148146
6666: 
To server: call 

river
CLUBS K 

inquire
7777 1780 2000 40 fold 
4444 1420 2000 440 check 
2222 10360 2000 440 check 
6666 1300 2000 440 check 
5555 1960 2000 40 fold 
8888 1340 2000 440 check 
total pot: 1840 

4444: 
LOW_ONE_PAIR 0.0
2222: 
HIGH_CARD 0.061111093
6666: 
To server: call 

showdown
common/ 
CLUBS A 
CLUBS 6 
CLUBS 3 
DIAMONDS 10 
CLUBS K 
/common 
1: 6666 CLUBS J CLUBS 9 FLUSH 
4: 2222 SPADES 2 SPADES 8 HIGH_CARD 
2: 4444 CLUBS 4 CLUBS 7 FLUSH 
3: 8888 CLUBS 5 DIAMONDS A FLUSH 

pot-win
6666: 1840 

seat
button: 6666 3140 2000 
small blind: 2222 10360 2000 
big blind: 4444 1420 2000 
7777 1780 2000 
8888 1340 2000 
5555 1960 2000 

blind
2222: 20 
4444: 40 

hold
DIAMONDS 8 
SPADES A 

inquire
7777 1740 2000 40 call 
4444 1380 2000 40 blind 
2222 10340 2000 20 blind 
total pot: 100 

7777: 
SMALL_PAIR 0.9569892
To server: call 

notify
7777 1740 2000 40 call 
4444 1380 2000 40 check 
2222 10320 2000 40 call 
6666 3100 2000 40 call 
5555 1960 2000 0 fold 
8888 1300 2000 40 call 
total pot: 200 

flop
SPADES 10 
HEARTS 4 
HEARTS 8 

inquire
7777 1740 2000 40 check 
4444 1380 2000 40 check 
2222 10320 2000 40 check 
6666 3100 2000 40 call 
5555 1960 2000 0 fold 
8888 1300 2000 40 call 
total pot: 200 

7777: 
LOW_ONE_PAIR 0.0
4444: 
STRAIGHT_1 0.0
2222: 
HIGH_CARD 0.011129618
6666: 
FLUSH 0.049218297
To server: call 

turn
CLUBS J 

inquire
7777 1740 2000 40 check 
4444 1380 2000 40 check 
2222 10320 2000 40 check 
6666 3100 2000 40 check 
5555 1960 2000 0 fold 
8888 1300 2000 40 check 
total pot: 200 

7777: 
LOW_ONE_PAIR 0.0
4444: 
FLUSH 0.0
LOW_ONE_PAIR 0.0
2222: 
STRAIGHT_1 0.00386101
HIGH_CARD 0.00386101
6666: 
FLUSH 0.0
To server: call 

river
HEARTS 7 

inquire
7777 1740 2000 40 check 
4444 1380 2000 40 fold 
2222 10320 2000 40 check 
6666 3100 2000 40 check 
5555 1960 2000 0 fold 
8888 1300 2000 40 check 
total pot: 200 

7777: 
LOW_ONE_PAIR 0.0
2222: 
HIGH_CARD 0.00772202
6666: 
FLUSH 0.0
To server: call 

showdown
common/ 
SPADES 10 
HEARTS 4 
HEARTS 8 
CLUBS J 
HEARTS 7 
/common 
4: 2222 DIAMONDS Q DIAMONDS 7 ONE_PAIR 
2: 7777 DIAMONDS K SPADES K ONE_PAIR 
3: 8888 DIAMONDS 8 SPADES A ONE_PAIR 
1: 6666 SPADES J HEARTS 10 TWO_PAIR 

pot-win
6666: 200 

seat
button: 2222 10320 2000 
small blind: 4444 1380 2000 
big blind: 7777 1740 2000 
8888 1300 2000 
5555 1960 2000 
6666 3300 2000 

blind
4444: 20 
7777: 40 

hold
HEARTS Q 
CLUBS 9 

inquire
7777 1700 2000 40 blind 
4444 1360 2000 20 blind 
total pot: 60 

To server: call 

notify
7777 1700 2000 40 check 
4444 1340 2000 40 call 
2222 10280 2000 40 call 
6666 3260 2000 40 call 
5555 1920 2000 40 call 
8888 1260 2000 40 call 
total pot: 240 

flop
HEARTS A 
DIAMONDS K 
DIAMONDS 9 

inquire
7777 1700 2000 40 check 
4444 1340 2000 40 check 
2222 10280 2000 40 call 
6666 3260 2000 40 call 
5555 1920 2000 40 call 
8888 1260 2000 40 call 
total pot: 240 

7777: 
HIGH_ONE_PAIR 0.0
LOW_ONE_PAIR 0.0
4444: 
STRAIGHT_1 0.0
2222: 
HIGH_CARD 0.014896989
6666: 
HIGH_ONE_PAIR 0.93939394
5555: 
HIGH_ONE_PAIR 0.0
To server: call 

turn
CLUBS J 

inquire
7777 1700 2000 40 check 
4444 1340 2000 40 check 
2222 10280 2000 40 check 
6666 3260 2000 40 check 
5555 1920 2000 40 check 
8888 1260 2000 40 check 
total pot: 240 

7777: 
HIGH_ONE_PAIR 0.0
LOW_ONE_PAIR 0.0
4444: 
FLUSH 0.0
LOW_ONE_PAIR 0.0
2222: 
STRAIGHT_1 0.0116279125
6666: 
HIGH_TWO_PAIR 0.0
FLUSH 0.0
5555: 
HIGH_ONE_PAIR 0.0
To server: call 

river
DIAMONDS 5 

inquire
7777 1700 2000 40 fold 
4444 1340 2000 40 fold 
2222 10280 2000 40 check 
6666 3260 2000 40 check 
5555 1920 2000 40 check 
8888 1260 2000 40 check 
total pot: 240 

2222: 
LOW_ONE_PAIR 0.0
6666: 
HIGH_TWO_PAIR 0.0
FLUSH 0.0
5555: 
HIGH_ONE_PAIR 0.0
To server: call 

showdown
common/ 
HEARTS A 
DIAMONDS K 
DIAMONDS 9 
CLUBS J 
DIAMONDS 5 
/common 
3: 8888 HEARTS Q CLUBS 9 ONE_PAIR 
2: 5555 CLUBS A DIAMONDS 10 ONE_PAIR 
1: 2222 SPADES 5 SPADES K TWO_PAIR 

pot-win
2222: 240 

seat
button: 4444 1340 2000 
small blind: 7777 1700 2000 
big blind: 8888 1260 2000 
5555 1920 2000 
6666 3260 2000 
2222 10520 2000 

blind
7777: 20 
8888: 40 

hold
HEARTS A 
DIAMONDS 8 

inquire
7777 1660 2000 40 call 
4444 1300 2000 40 call 
2222 10480 2000 40 call 
6666 3220 2000 40 call 
5555 1880 2000 40 call 
8888 1220 2000 40 blind 
total pot: 240 

7777: 
SMALL_PAIR 0.45698923
BIG_PAIR 0.4775281
4444: 
LOW_SINGLE 0.3526316
SMALL_FLUSH 0.36021507
2222: 
SMALL_FLUSH 0.6782746
6666: 
HIGH_SINGLE 0.48159507
BIG_FLUSH 0.26687115
5555: 
SMALL_FLUSH 0.46875
HIGH_SINGLE 0.4897959
To server: call 

flop
SPADES 3 
DIAMONDS 2 
DIAMONDS 4 

inquire
7777 1660 2000 40 check 
4444 1300 2000 40 call 
2222 10480 2000 40 call 
6666 3220 2000 40 call 
5555 1880 2000 40 call 
8888 1220 2000 40 check 
total pot: 240 

7777: 
LOW_ONE_PAIR 0.0
HIGH_ONE_PAIR 0.0
4444: 
STRAIGHT_1 0.0
2222: 
HIGH_CARD 0.014613688
6666: 
HIGH_ONE_PAIR 0.9509202
5555: 
HIGH_ONE_PAIR 0.5
To server: call 

turn
DIAMONDS 3 

inquire
7777 1660 2000 40 check 
4444 1300 2000 40 check 
2222 10480 2000 40 check 
6666 3220 2000 40 check 
5555 1880 2000 40 check 
8888 1220 2000 40 check 
total pot: 240 

7777: 
LOW_ONE_PAIR 0.0
HIGH_ONE_PAIR 0.0
4444: 
LOW_ONE_PAIR 0.0
FLUSH 0.0
2222: 
STRAIGHT_1 0.011406779
6666: 
FLUSH 0.0
HIGH_TWO_PAIR 0.0
5555: 
HIGH_ONE_PAIR 0.0
To server: call 

river
DIAMONDS 7 

inquire
7777 1660 2000 40 check 
4444 1300 2000 40 check 
2222 10480 2000 40 check 
6666 3220 2000 40 check 
5555 1880 2000 40 check 
8888 1220 2000 40 check 
total pot: 240 

7777: 
LOW_ONE_PAIR 0.0
HIGH_ONE_PAIR 0.0
4444: 
FLUSH 0.0
LOW_ONE_PAIR 0.0
2222: 
LOW_ONE_PAIR 0.0
6666: 
HIGH_TWO_PAIR 0.0
FLUSH 0.0
5555: 
HIGH_ONE_PAIR 0.0
To server: call 

showdown
common/ 
SPADES 3 
DIAMONDS 2 
DIAMONDS 4 
DIAMONDS 3 
DIAMONDS 7 
/common 
5: 7777 CLUBS 8 HEARTS K ONE_PAIR 
2: 8888 HEARTS A DIAMONDS 8 FLUSH 
3: 5555 DIAMONDS 5 HEARTS 2 FLUSH 
4: 6666 CLUBS 9 CLUBS 2 TWO_PAIR 
1: 2222 CLUBS 4 SPADES 4 FULL_HOUSE 
6: 4444 HEARTS 6 HEARTS J ONE_PAIR 

pot-win
2222: 240 

seat
button: 7777 1660 2000 
small blind: 8888 1220 2000 
big blind: 5555 1880 2000 
6666 3220 2000 
2222 10720 2000 
4444 1300 2000 

blind
8888: 20 
5555: 40 

hold
CLUBS 6 
CLUBS K 

inquire
7777 1620 2000 40 call 
4444 1260 2000 40 call 
2222 10680 2000 40 call 
6666 3180 2000 40 call 
5555 1840 2000 40 blind 
8888 1200 2000 20 blind 
total pot: 220 

7777: 
LOW_SINGLE 0.3254902
SMALL_PAIR 0.29749104
BIG_PAIR 0.31086144
4444: 
LOW_SINGLE 0.22807018
SMALL_FLUSH 0.556358
2222: 
SMALL_FLUSH 0.5183771
SMALL_PAIR 0.24533582
6666: 
SMALL_FLUSH 0.32924333
BIG_FLUSH 0.18012422
HIGH_SINGLE 0.32505175
To server: call 

flop
HEARTS A 
CLUBS 10 
CLUBS 3 

inquire
7777 1620 2000 40 call 
4444 1260 2000 40 call 
2222 10680 2000 40 call 
6666 3180 2000 40 call 
5555 1840 2000 40 check 
8888 1180 2000 40 call 
total pot: 240 

7777: 
HIGH_CARD 0.0
HIGH_ONE_PAIR 0.0
LOW_ONE_PAIR 0.0
4444: 
STRAIGHT_1 0.5
2222: 
THREE_OF_A_KIND 0.9776119
6666: 
LOW_ONE_PAIR 0.5
HIGH_ONE_PAIR 0.4813665
5555: 
HIGH_ONE_PAIR 0.32638893
LOW_ONE_PAIR 0.33333334
To server: call 

turn
SPADES Q 

inquire
7777 1620 2000 40 check 
4444 1260 2000 40 check 
2222 10680 2000 40 check 
6666 3180 2000 40 check 
5555 1840 2000 40 check 
8888 1180 2000 40 check 
total pot: 240 

7777: 
LOW_ONE_PAIR 0.0
HIGH_ONE_PAIR 0.0
4444: 
FLUSH 0.0
LOW_ONE_PAIR 0.0
2222: 
FULL_HOUSE_UP 0.0
6666: 
HIGH_TWO_PAIR 0.0
FLUSH 0.0
LOW_TWO_PAIR 0.0
5555: 
HIGH_ONE_PAIR 0.0
LOW_TWO_PAIR 0.0
To server: call 

river
CLUBS Q 

inquire
7777 1620 2000 40 check 
4444 1260 2000 40 check 
2222 10680 2000 40 check 
6666 3180 2000 40 check 
5555 1840 2000 40 check 
8888 1180 2000 40 check 
total pot: 240 

7777: 
HIGH_ONE_PAIR 0.0
LOW_ONE_PAIR 0.0
4444: 
FLUSH 0.0
LOW_ONE_PAIR 0.0
2222: 
LOW_ONE_PAIR 0.0
FULL_HOUSE_UP 0.0
6666: 
LOW_TWO_PAIR 0.0
FLUSH 0.0
HIGH_TWO_PAIR 0.0
5555: 
HIGH_ONE_PAIR 0.0
FLUSH 0.0
To server: call 

showdown
common/ 
HEARTS A 
CLUBS 10 
CLUBS 3 
SPADES Q 
CLUBS Q 
/common 
1: 8888 CLUBS 6 CLUBS K FLUSH 
2: 5555 SPADES 8 CLUBS A TWO_PAIR 
5: 6666 CLUBS 8 HEARTS 7 ONE_PAIR 
4: 2222 CLUBS 9 DIAMONDS J ONE_PAIR 
6: 4444 SPADES 6 CLUBS 7 ONE_PAIR 
3: 7777 DIAMONDS 8 SPADES 10 TWO_PAIR 

pot-win
8888: 240 

seat
button: 8888 1420 2000 
small blind: 5555 1840 2000 
big blind: 6666 3180 2000 
2222 10680 2000 
4444 1260 2000 
7777 1620 2000 

blind
5555: 20 
6666: 40 

hold
HEARTS 5 
CLUBS 8 

inquire
7777 1580 2000 40 call 
4444 1220 2000 40 call 
2222 10640 2000 40 call 
6666 3140 2000 40 blind 
5555 1820 2000 20 blind 
total pot: 180 

7777: 
BIG_PAIR 0.2275281
LOW_SINGLE 0.48221117
SMALL_PAIR 0.21774194
4444: 
LOW_SINGLE 0.40809715
SMALL_FLUSH 0.40442944
2222: 
SMALL_FLUSH 0.5164429
SMALL_PAIR 0.24625468
To server: call 

notify
7777 1580 2000 40 call 
4444 1220 2000 40 call 
2222 10640 2000 40 call 
6666 3140 2000 40 check 
5555 1800 2000 40 call 
8888 1380 2000 40 call 
total pot: 240 

flop
CLUBS 2 
SPADES 5 
SPADES K 

inquire
7777 1580 2000 40 check 
4444 1220 2000 40 check 
2222 10640 2000 40 check 
6666 3140 2000 40 check 
5555 1800 2000 40 check 
8888 1380 2000 40 call 
total pot: 240 

7777: 
HIGH_ONE_PAIR 0.25
LOW_ONE_PAIR 0.0
HIGH_CARD 0.0
4444: 
STRAIGHT_1 0.32307687
HIGH_CARD 0.33333334
2222: 
THREE_OF_A_KIND 0.9812734
6666: 
HIGH_ONE_PAIR 0.32494757
LOW_ONE_PAIR 0.32919255
HIGH_CARD 0.33333334
5555: 
LOW_ONE_PAIR 0.24468084
HIGH_ONE_PAIR 0.23958331
To server: call 

turn
HEARTS A 

inquire
7777 1580 2000 40 check 
4444 1220 2000 40 check 
2222 10640 2000 40 check 
6666 3140 2000 40 check 
5555 1800 2000 40 check 
8888 1380 2000 40 check 
total pot: 240 

7777: 
HIGH_ONE_PAIR 0.0
LOW_ONE_PAIR 0.0
4444: 
LOW_ONE_PAIR 0.0
HIGH_CARD 0.0
FLUSH 0.0
2222: 
FULL_HOUSE_UP 0.0
6666: 
HIGH_TWO_PAIR 0.0
LOW_TWO_PAIR 0.0
FLUSH 0.0
HIGH_CARD 0.0
5555: 
LOW_TWO_PAIR 0.0
HIGH_ONE_PAIR 0.0
To server: call 

river
CLUBS 10 

inquire
7777 1580 2000 40 check 
4444 1220 2000 40 fold 
2222 10640 2000 40 check 
6666 3140 2000 40 check 
5555 1800 2000 40 check 
8888 1380 2000 40 check 
total pot: 240 

7777: 
LOW_ONE_PAIR 0.0
HIGH_ONE_PAIR 0.0
HIGH_TWO_PAIR 0.0
2222: 
FULL_HOUSE_UP 0.0
HIGH_ONE_PAIR 0.0
LOW_ONE_PAIR 0.0
6666: 
HIGH_TWO_PAIR 0.0
HIGH_ONE_PAIR 0.0
LOW_TWO_PAIR 0.0
FLUSH 0.0
5555: 
FLUSH 0.0
HIGH_ONE_PAIR 0.0
HIGH_TWO_PAIR 0.0
To server: call 

showdown
common/ 
CLUBS 2 
SPADES 5 
SPADES K 
HEARTS A 
CLUBS 10 
/common 
2: 5555 HEARTS 10 DIAMONDS Q ONE_PAIR 
1: 6666 DIAMONDS A HEARTS 6 ONE_PAIR 
4: 2222 SPADES 8 SPADES 9 HIGH_CARD 
3: 7777 DIAMONDS 5 CLUBS 7 ONE_PAIR 
3: 8888 HEARTS 5 CLUBS 8 ONE_PAIR 

pot-win
6666: 240 

seat
button: 5555 1800 2000 
small blind: 6666 3380 2000 
big blind: 2222 10640 2000 
4444 1220 2000 
7777 1580 2000 
8888 1380 2000 

blind
6666: 20 
2222: 40 

hold
DIAMONDS 8 
SPADES K 

inquire
7777 1540 2000 40 call 
4444 1180 2000 40 call 
2222 10600 2000 40 blind 
6666 3360 2000 20 blind 
total pot: 140 

7777: 
LOW_SINGLE 0.5713055
SMALL_PAIR 0.16989246
BIG_PAIR 0.17752808
4444: 
SMALL_FLUSH 0.39159045
LOW_SINGLE 0.39514175
To server: call 

notify
7777 1540 2000 40 call 
4444 1180 2000 40 call 
2222 10600 2000 40 check 
6666 3340 2000 40 call 
5555 1760 2000 40 call 
8888 1340 2000 40 call 
total pot: 240 

flop
SPADES A 
HEARTS J 
HEARTS K 

inquire
7777 1540 2000 40 check 
4444 1180 2000 40 check 
2222 10600 2000 40 check 
6666 3340 2000 40 check 
5555 1760 2000 40 call 
8888 1340 2000 40 call 
total pot: 240 

7777: 
LOW_ONE_PAIR 0.0
HIGH_ONE_PAIR 0.19506173
HIGH_CARD 0.0
4444: 
HIGH_CARD 0.32275137
STRAIGHT_1 0.31282052
2222: 
THREE_OF_A_KIND 0.4924812
FLUSH_1 0.0
6666: 
HIGH_ONE_PAIR 0.22928995
HIGH_CARD 0.26572326
LOW_ONE_PAIR 0.23816568
5555: 
HIGH_CARD 0.0
LOW_ONE_PAIR 0.19148935
HIGH_ONE_PAIR 0.1875
To server: call 

turn
CLUBS 8 

inquire
7777 1540 2000 40 check 
4444 1180 2000 40 check 
2222 10600 2000 40 check 
6666 3340 2000 40 check 
5555 1760 2000 40 check 
8888 1340 2000 40 check 
total pot: 240 

7777: 
HIGH_ONE_PAIR 0.0
LOW_ONE_PAIR 0.0
4444: 
HIGH_CARD 0.0
FLUSH 0.0
LOW_ONE_PAIR 0.0
2222: 
FULL_HOUSE_UP 0.0
FLUSH_1 0.0
6666: 
HIGH_CARD 0.0
LOW_TWO_PAIR 0.0
HIGH_ONE_PAIR 0.0
FLUSH 0.0
HIGH_TWO_PAIR 0.0
5555: 
STRAIGHT_1 0.0
LOW_TWO_PAIR 0.0
HIGH_ONE_PAIR 0.0
To server: call 

river
DIAMONDS 10 

inquire
7777 1540 2000 40 check 
4444 1180 2000 40 fold 
2222 10600 2000 40 check 
6666 3340 2000 40 check 
5555 1760 2000 40 check 
8888 1340 2000 40 check 
total pot: 240 

7777: 
LOW_ONE_PAIR 0.0
HIGH_TWO_PAIR 0.0
HIGH_ONE_PAIR 0.0
2222: 
HIGH_ONE_PAIR 0.0
LOW_ONE_PAIR 0.0
FULL_HOUSE_UP 0.0
6666: 
HIGH_TWO_PAIR 0.0
HIGH_ONE_PAIR 0.0
FLUSH 0.0
LOW_TWO_PAIR 0.0
5555: 
HIGH_ONE_PAIR 0.0
HIGH_TWO_PAIR 0.0
FLUSH 0.0
To server: call 

showdown
common/ 
SPADES A 
HEARTS J 
HEARTS K 
CLUBS 8 
DIAMONDS 10 
/common 
3: 6666 HEARTS 9 CLUBS A ONE_PAIR 
5: 2222 DIAMONDS 2 HEARTS 7 HIGH_CARD 
1: 7777 SPADES Q HEARTS 5 STRAIGHT 
2: 8888 DIAMONDS 8 SPADES K TWO_PAIR 
4: 5555 DIAMONDS 6 CLUBS K ONE_PAIR 

pot-win
7777: 240 

seat
button: 6666 3340 2000 
small blind: 2222 10600 2000 
big blind: 4444 1180 2000 
7777 1780 2000 
8888 1340 2000 
5555 1760 2000 

blind
2222: 20 
4444: 40 

hold
HEARTS K 
SPADES 3 

inquire
7777 1740 2000 40 call 
4444 1140 2000 40 blind 
2222 10580 2000 20 blind 
total pot: 100 

7777: 
LOW_SINGLE 0.61377525
BIG_PAIR 0.16666667
SMALL_PAIR 0.1594982
To server: call 

notify
7777 1740 2000 40 call 
4444 1140 2000 40 check 
2222 10560 2000 40 call 
6666 3300 2000 40 call 
5555 1720 2000 40 call 
8888 1300 2000 40 call 
total pot: 240 

flop
HEARTS 3 
HEARTS 4 
SPADES 2 

inquire
7777 1740 2000 40 check 
4444 1140 2000 40 check 
2222 10560 2000 40 check 
6666 3300 2000 40 call 
5555 1720 2000 40 call 
8888 1300 2000 40 call 
total pot: 240 

7777: 
LOW_ONE_PAIR 0.0
STRAIGHT_1 0.0
HIGH_ONE_PAIR 0.18312757
HIGH_CARD 0.0
4444: 
HIGH_CARD 0.31216934
STRAIGHT_1 0.30256405
2222: 
THREE_OF_A_KIND 0.49433962
FLUSH_1 0.0
6666: 
LOW_ONE_PAIR 0.19281438
HIGH_CARD 0.21006289
HIGH_ONE_PAIR 0.21548386
5555: 
HIGH_CARD 0.0
HIGH_ONE_PAIR 0.31944445
LOW_ONE_PAIR 0.15602836
To server: call 

turn
CLUBS Q 

inquire
7777 1740 2000 40 check 
4444 1140 2000 40 check 
2222 10560 2000 40 check 
6666 3300 2000 40 check 
5555 1720 2000 40 check 
8888 1300 2000 40 check 
total pot: 240 

7777: 
STRAIGHT_1 0.0
LOW_ONE_PAIR 0.0
HIGH_ONE_PAIR 0.0
4444: 
HIGH_CARD 0.0
LOW_ONE_PAIR 0.0
FLUSH 0.0
2222: 
FLUSH_1 0.0
FULL_HOUSE_UP 0.0
6666: 
HIGH_ONE_PAIR 0.0
HIGH_CARD 0.0
HIGH_TWO_PAIR 0.0
FLUSH 0.0
LOW_TWO_PAIR 0.0
5555: 
HIGH_ONE_PAIR 0.0
STRAIGHT_1 0.0
LOW_TWO_PAIR 0.0
To server: call 

river
SPADES 7 

inquire
7777 1740 2000 40 fold 
4444 1140 2000 40 fold 
2222 10560 2000 40 check 
6666 3300 2000 40 check 
5555 1720 2000 40 check 
8888 1300 2000 40 check 
total pot: 240 

2222: 
FULL_HOUSE_UP 0.0
LOW_ONE_PAIR 0.0
HIGH_ONE_PAIR 0.0
6666: 
FLUSH 0.0
HIGH_TWO_PAIR 0.0
LOW_TWO_PAIR 0.0
HIGH_ONE_PAIR 0.0
5555: 
HIGH_TWO_PAIR 0.0
FLUSH 0.0
HIGH_ONE_PAIR 0.0
To server: call 

showdown
common/ 
HEARTS 3 
HEARTS 4 
SPADES 2 
CLUBS Q 
SPADES 7 
/common 
2: 2222 HEARTS 7 SPADES 6 ONE_PAIR 
3: 8888 HEARTS K SPADES 3 ONE_PAIR 
1: 5555 SPADES A DIAMONDS A ONE_PAIR 

pot-win
5555: 240 

seat
button: 2222 10560 2000 
small blind: 4444 1140 2000 
big blind: 7777 1740 2000 
8888 1300 2000 
5555 1960 2000 
6666 3300 2000 

blind
4444: 20 
7777: 40 

hold
DIAMONDS A 
SPADES 4 

inquire
7777 1700 2000 40 blind 
4444 1120 2000 20 blind 
total pot: 60 

To server: call 

notify
7777 1700 2000 40 check 
4444 1100 2000 40 call 
2222 10520 2000 40 call 
6666 3260 2000 40 call 
5555 1920 2000 40 call 
8888 1260 2000 40 call 
total pot: 240 

flop
DIAMONDS 6 
HEARTS 6 
CLUBS 9 

inquire
7777 1700 2000 40 check 
4444 1100 2000 40 check 
2222 10520 2000 40 call 
6666 3260 2000 40 call 
5555 1920 2000 40 call 
8888 1260 2000 40 call 
total pot: 240 

7777: 
HIGH_CARD 0.0
HIGH_ONE_PAIR 0.17901234
STRAIGHT_1 0.0
LOW_ONE_PAIR 0.0
4444: 
HIGH_CARD 0.3015873
STRAIGHT_1 0.29230765
2222: 
FLUSH_1 0.0
THREE_OF_A_KIND 0.49621212
6666: 
HIGH_CARD 0.20754716
HIGH_ONE_PAIR 0.21290322
LOW_ONE_PAIR 0.19515151
5555: 
LOW_ONE_PAIR 0.13702624
HIGH_ONE_PAIR 0.46771494
HIGH_CARD 0.0
To server: call 

turn
SPADES 2 

inquire
7777 1700 2000 40 check 
4444 1100 2000 40 check 
2222 10520 2000 40 check 
6666 3260 2000 40 check 
5555 1920 2000 40 check 
8888 1260 2000 40 check 
total pot: 240 

7777: 
STRAIGHT_1 0.0
HIGH_ONE_PAIR 0.0
LOW_ONE_PAIR 0.0
4444: 
LOW_ONE_PAIR 0.0
FLUSH 0.0
HIGH_CARD 0.0
2222: 
FULL_HOUSE_UP 0.0
FLUSH_1 0.0
6666: 
HIGH_TWO_PAIR 0.0
HIGH_CARD 0.0
FLUSH 0.0
LOW_TWO_PAIR 0.0
HIGH_ONE_PAIR 0.0
5555: 
LOW_TWO_PAIR 0.0
HIGH_ONE_PAIR 0.0
STRAIGHT_1 0.0
To server: call 

river
HEARTS A 

inquire
7777 1700 2000 40 check 
4444 1100 2000 40 check 
2222 10520 2000 40 check 
6666 3260 2000 40 check 
5555 1920 2000 40 check 
8888 1260 2000 40 check 
total pot: 240 

7777: 
HIGH_ONE_PAIR 0.0
HIGH_TWO_PAIR 0.0
STRAIGHT 0.0
LOW_ONE_PAIR 0.0
4444: 
HIGH_ONE_PAIR 0.0
FLUSH 0.0
LOW_ONE_PAIR 0.0
2222: 
FULL_HOUSE_UP 0.0
LOW_ONE_PAIR 0.0
HIGH_ONE_PAIR 0.0
6666: 
LOW_TWO_PAIR 0.0
HIGH_ONE_PAIR 0.0
FLUSH 0.0
HIGH_TWO_PAIR 0.0
5555: 
HIGH_TWO_PAIR 0.0
FLUSH 0.0
HIGH_ONE_PAIR 0.0
To server: call 

showdown
common/ 
DIAMONDS 6 
HEARTS 6 
CLUBS 9 
SPADES 2 
HEARTS A 
/common 
3: 4444 DIAMONDS Q DIAMONDS 2 TWO_PAIR 
4: 7777 DIAMONDS K SPADES 10 ONE_PAIR 
2: 8888 DIAMONDS A SPADES 4 TWO_PAIR 
3: 5555 HEARTS 2 HEARTS 7 TWO_PAIR 
2: 6666 HEARTS 3 SPADES A TWO_PAIR 
1: 2222 SPADES 9 CLUBS A TWO_PAIR 

pot-win
2222: 240 

seat
button: 4444 1100 2000 
small blind: 7777 1700 2000 
big blind: 8888 1260 2000 
5555 1920 2000 
6666 3260 2000 
2222 10760 2000 

blind
7777: 20 
8888: 40 

hold
HEARTS K 
HEARTS 2 

inquire
7777 1660 2000 40 call 
4444 1060 2000 40 call 
2222 10720 2000 40 call 
6666 3220 2000 40 call 
5555 1880 2000 40 call 
8888 1220 2000 40 blind 
total pot: 240 

7777: 
LOW_SINGLE 0.55085045
SMALL_PAIR 0.13056836
HIGH_SINGLE 0.0
BIG_PAIR 0.1364366
4444: 
SMALL_FLUSH 0.47544116
LOW_SINGLE 0.28502026
2222: 
SMALL_FLUSH 0.61774725
SMALL_PAIR 0.19553903
6666: 
BIG_FLUSH 0.0762489
SMALL_FLUSH 0.14285715
LOW_SINGLE 0.4235426
HIGH_SINGLE 0.13759859
5555: 
LOW_SINGLE 0.3643202
BIG_PAIR 0.114583336
HIGH_SINGLE 0.24714912
SMALL_FLUSH 0.2443484
To server: call 

flop
CLUBS 8 
DIAMONDS Q 
HEARTS Q 

inquire
7777 1660 2000 40 check 
4444 1060 2000 40 call 
2222 10720 2000 40 call 
6666 3220 2000 40 call 
5555 1880 2000 40 call 
8888 1220 2000 40 check 
total pot: 240 

7777: 
HIGH_CARD 0.0
LOW_ONE_PAIR 0.0
STRAIGHT_1 0.0
HIGH_ONE_PAIR 0.1499118
4444: 
LOW_ONE_PAIR 0.0
HIGH_CARD 0.21825399
STRAIGHT_1 0.21153846
2222: 
FLUSH_1 0.0
HIGH_TWO_PAIR 0.32589838
THREE_OF_A_KIND 0.32465923
6666: 
HIGH_CARD 0.17085953
LOW_ONE_PAIR 0.33127573
HIGH_ONE_PAIR 0.17526881
5555: 
HIGH_CARD 0.0
HIGH_ONE_PAIR 0.40089852
LOW_ONE_PAIR 0.24736843
To server: call 

turn
CLUBS 4 

inquire
7777 1660 2000 40 check 
4444 1060 2000 40 check 
2222 10720 2000 40 check 
6666 3220 2000 40 check 
5555 1880 2000 40 check 
8888 1220 2000 40 check 
total pot: 240 

7777: 
LOW_ONE_PAIR 0.0
HIGH_ONE_PAIR 0.0
STRAIGHT_1 0.0
4444: 
LOW_TWO_PAIR 0.0
HIGH_CARD 0.0
LOW_ONE_PAIR 0.0
FLUSH 0.0
2222: 
HIGH_TWO_PAIR 0.0
FULL_HOUSE_UP 0.0
FLUSH_1 0.0
6666: 
HIGH_ONE_PAIR 0.0
HIGH_TWO_PAIR 0.0
HIGH_CARD 0.0
LOW_TWO_PAIR 0.0
LOW_ONE_PAIR 0.0
FLUSH 0.0
5555: 
STRAIGHT_1 0.0
HIGH_ONE_PAIR 0.0
LOW_TWO_PAIR 0.0
To server: call 

river
SPADES 5 

inquire
7777 1660 2000 40 check 
4444 1060 2000 40 check 
2222 10720 2000 40 check 
6666 3220 2000 40 check 
5555 1880 2000 40 check 
8888 1220 2000 40 check 
total pot: 240 

7777: 
LOW_ONE_PAIR 0.0
STRAIGHT 0.0
HIGH_ONE_PAIR 0.0
HIGH_TWO_PAIR 0.0
4444: 
LOW_TWO_PAIR 0.0
FLUSH 0.0
LOW_ONE_PAIR 0.0
HIGH_ONE_PAIR 0.0
2222: 
FULL_HOUSE_UP 0.0
LOW_ONE_PAIR 0.0
HIGH_ONE_PAIR 0.0
6666: 
HIGH_ONE_PAIR 0.0
HIGH_TWO_PAIR 0.0
LOW_TWO_PAIR 0.0
FLUSH 0.0
5555: 
LOW_TWO_PAIR 0.0
HIGH_ONE_PAIR 0.0
HIGH_TWO_PAIR 0.0
FLUSH 0.0
To server: call 

showdown
common/ 
CLUBS 8 
DIAMONDS Q 
HEARTS Q 
CLUBS 4 
SPADES 5 
/common 
6: 7777 DIAMONDS 7 CLUBS 9 ONE_PAIR 
3: 8888 HEARTS K HEARTS 2 ONE_PAIR 
5: 5555 DIAMONDS 2 SPADES 10 ONE_PAIR 
1: 6666 SPADES Q CLUBS 2 THREE_OF_A_KIND 
4: 2222 SPADES J CLUBS 6 ONE_PAIR 
2: 4444 SPADES 7 DIAMONDS 4 TWO_PAIR 

pot-win
6666: 240 

seat
button: 7777 1660 2000 
small blind: 8888 1220 2000 
big blind: 5555 1880 2000 
6666 3460 2000 
2222 10720 2000 
4444 1060 2000 

blind
8888: 20 
5555: 40 

hold
DIAMONDS 4 
CLUBS Q 

inquire
7777 1620 2000 40 call 
4444 1020 2000 40 call 
2222 10680 2000 40 call 
6666 3420 2000 40 call 
5555 1840 2000 40 blind 
8888 1200 2000 20 blind 
total pot: 220 

7777: 
HIGH_SINGLE 0.0
SMALL_PAIR 0.111559145
BIG_PAIR 0.116573036
LOW_SINGLE 0.62148666
4444: 
LOW_SINGLE 0.38948599
SMALL_FLUSH 0.38179362
2222: 
SMALL_FLUSH 0.6154508
SMALL_PAIR 0.19626865
6666: 
LOW_SINGLE 0.5260047
BIG_FLUSH 0.06286127
HIGH_SINGLE 0.1134393
SMALL_FLUSH 0.11777457
To server: call 

flop
SPADES 3 
SPADES 6 
CLUBS A 

inquire
7777 1620 2000 40 call 
4444 1020 2000 40 call 
2222 10680 2000 40 call 
6666 3420 2000 40 call 
5555 1840 2000 40 check 
8888 1180 2000 40 call 
total pot: 240 

7777: 
HIGH_CARD 0.0
STRAIGHT_1 0.0
LOW_ONE_PAIR 0.0
HIGH_ONE_PAIR 0.12808642
4444: 
HIGH_ONE_PAIR 0.2
LOW_ONE_PAIR 0.0
STRAIGHT_1 0.1630769
HIGH_CARD 0.16825397
2222: 
HIGH_TWO_PAIR 0.32711443
FLUSH_1 0.0
THREE_OF_A_KIND 0.32587063
6666: 
THREE_OF_A_KIND 0.13294797
HIGH_ONE_PAIR 0.159447
HIGH_CARD 0.15543577
LOW_ONE_PAIR 0.2675373
5555: 
HIGH_CARD 0.0
LOW_ONE_PAIR 0.21990742
HIGH_ONE_PAIR 0.46004125
To server: call 

turn
DIAMONDS 2 

inquire
7777 1620 2000 40 check 
4444 1020 2000 40 check 
2222 10680 2000 40 check 
6666 3420 2000 40 check 
5555 1840 2000 40 check 
8888 1180 2000 40 check 
total pot: 240 

7777: 
HIGH_ONE_PAIR 0.0
LOW_ONE_PAIR 0.0
STRAIGHT_1 0.0
4444: 
HIGH_CARD 0.0
LOW_ONE_PAIR 0.0
LOW_TWO_PAIR 0.0
FLUSH 0.0
HIGH_TWO_PAIR 0.0
2222: 
FULL_HOUSE_UP 0.0
HIGH_TWO_PAIR 0.0
FLUSH_1 0.0
6666: 
HIGH_ONE_PAIR 0.0
LOW_ONE_PAIR 0.0
LOW_TWO_PAIR 0.0
THREE_OF_A_KIND 0.0
FLUSH 0.0
HIGH_TWO_PAIR 0.0
HIGH_CARD 0.0
5555: 
HIGH_ONE_PAIR 0.0
LOW_TWO_PAIR 0.0
STRAIGHT_1 0.0
To server: call 

river
DIAMONDS J 

inquire
7777 1620 2000 40 check 
4444 1020 2000 40 check 
2222 10680 2000 40 check 
6666 3420 2000 40 check 
5555 1840 2000 40 check 
8888 1180 2000 40 check 
total pot: 240 

7777: 
LOW_ONE_PAIR 0.0
STRAIGHT 0.0
HIGH_TWO_PAIR 0.0
HIGH_ONE_PAIR 0.0
4444: 
HIGH_ONE_PAIR 0.0
FLUSH 0.0
LOW_ONE_PAIR 0.0
HIGH_TWO_PAIR 0.0
LOW_TWO_PAIR 0.0
2222: 
FULL_HOUSE_UP 0.0
HIGH_ONE_PAIR 0.0
LOW_ONE_PAIR 0.0
6666: 
FLUSH 0.0
THREE_OF_A_KIND 0.0
HIGH_ONE_PAIR 0.0
LOW_TWO_PAIR 0.0
HIGH_TWO_PAIR 0.0
5555: 
HIGH_TWO_PAIR 0.0
HIGH_ONE_PAIR 0.0
LOW_TWO_PAIR 0.0
FLUSH 0.0
To server: fold 

showdown
common/ 
SPADES 3 
SPADES 6 
CLUBS A 
DIAMONDS 2 
DIAMONDS J 
/common 
1: 5555 DIAMONDS 6 HEARTS 3 TWO_PAIR 
3: 6666 HEARTS 8 HEARTS A ONE_PAIR 
5: 2222 HEARTS 9 DIAMONDS 5 HIGH_CARD 
2: 4444 HEARTS Q SPADES A ONE_PAIR 
4: 7777 HEARTS 5 CLUBS 6 ONE_PAIR 

pot-win
5555: 240 

seat
button: 8888 1180 2000 
small blind: 5555 2080 2000 
big blind: 6666 3420 2000 
2222 10680 2000 
4444 1020 2000 
7777 1620 2000 

blind
5555: 20 
6666: 40 

hold
HEARTS 3 
DIAMONDS 7 

inquire
7777 1580 2000 40 call 
4444 980 2000 40 call 
2222 10640 2000 40 call 
6666 3380 2000 40 blind 
5555 2060 2000 20 blind 
total pot: 180 

7777: 
SMALL_PAIR 0.09677419
BIG_PAIR 0.1011236
LOW_SINGLE 0.65366733
HIGH_SINGLE 0.0
4444: 
LOW_SINGLE 0.3212472
SMALL_FLUSH 0.31490254
HIGH_SINGLE 0.1374663
2222: 
SMALL_PAIR 0.19700375
SMALL_FLUSH 0.6131543
To server: call 

notify
7777 1580 2000 40 call 
4444 980 2000 40 call 
2222 10640 2000 40 call 
6666 3380 2000 40 check 
5555 2040 2000 40 call 
8888 1140 2000 40 call 
total pot: 240 

flop
CLUBS 3 
HEARTS A 
SPADES 8 

inquire
7777 1580 2000 40 check 
4444 980 2000 40 check 
2222 10640 2000 40 check 
6666 3380 2000 40 check 
5555 2040 2000 40 check 
8888 1140 2000 40 call 
total pot: 240 

7777: 
LOW_ONE_PAIR 0.11111111
STRAIGHT_1 0.0
HIGH_CARD 0.0
HIGH_ONE_PAIR 0.11111108
4444: 
LOW_ONE_PAIR 0.0
HIGH_CARD 0.13492064
HIGH_ONE_PAIR 0.327044
STRAIGHT_1 0.13076921
2222: 
HIGH_TWO_PAIR 0.32833958
THREE_OF_A_KIND 0.32709113
FLUSH_1 0.0
6666: 
HIGH_ONE_PAIR 0.2629032
LOW_ONE_PAIR 0.23683308
HIGH_CARD 0.13443395
THREE_OF_A_KIND 0.11769006
5555: 
HIGH_CARD 0.0
HIGH_ONE_PAIR 0.4580837
LOW_ONE_PAIR 0.18267207
LOW_TWO_PAIR 0.0
To server: call 

turn
CLUBS K 

inquire
7777 1580 2000 40 check 
4444 980 2000 40 check 
2222 10640 2000 40 check 
6666 3380 2000 40 check 
5555 2040 2000 40 check 
8888 1140 2000 40 check 
total pot: 240 

7777: 
HIGH_ONE_PAIR 0.0
LOW_ONE_PAIR 0.0
STRAIGHT_1 0.0
4444: 
HIGH_CARD 0.0
HIGH_TWO_PAIR 0.0
FLUSH 0.0
HIGH_ONE_PAIR 0.0
LOW_TWO_PAIR 0.0
LOW_ONE_PAIR 0.0
2222: 
FLUSH_1 0.0
FULL_HOUSE_UP 0.0
HIGH_TWO_PAIR 0.0
6666: 
LOW_TWO_PAIR 0.0
LOW_ONE_PAIR 0.0
HIGH_ONE_PAIR 0.0
HIGH_TWO_PAIR 0.0
HIGH_CARD 0.0
FLUSH 0.0
THREE_OF_A_KIND 0.0
5555: 
HIGH_ONE_PAIR 0.0
LOW_TWO_PAIR 0.0
STRAIGHT_1 0.0
To server: call 

river
HEARTS 9 

inquire
7777 1580 2000 40 fold 
4444 980 2000 40 check 
2222 10640 2000 40 check 
6666 3380 2000 40 fold 
5555 2040 2000 40 check 
8888 1140 2000 40 check 
total pot: 240 

4444: 
LOW_ONE_PAIR 0.0
HIGH_TWO_PAIR 0.0
HIGH_ONE_PAIR 0.0
LOW_TWO_PAIR 0.0
FLUSH 0.0
2222: 
HIGH_ONE_PAIR 0.0
LOW_ONE_PAIR 0.0
FULL_HOUSE_UP 0.0
5555: 
HIGH_TWO_PAIR 0.0
LOW_TWO_PAIR 0.0
HIGH_ONE_PAIR 0.0
FLUSH 0.0
To server: call 

showdown
common/ 
CLUBS 3 
HEARTS A 
SPADES 8 
CLUBS K 
HEARTS 9 
/common 
1: 5555 SPADES A CLUBS 6 ONE_PAIR 
3: 2222 SPADES 2 HEARTS 8 ONE_PAIR 
2: 4444 CLUBS 9 HEARTS 7 ONE_PAIR 
4: 8888 HEARTS 3 DIAMONDS 7 ONE_PAIR 

pot-win
5555: 240 

seat
button: 5555 2280 2000 
small blind: 6666 3380 2000 
big blind: 2222 10640 2000 
4444 980 2000 
7777 1580 2000 
8888 1140 2000 

blind
6666: 20 
2222: 40 

hold
SPADES 4 
CLUBS 7 

inquire
7777 1540 2000 40 call 
4444 940 2000 40 call 
2222 10600 2000 40 blind 
6666 3360 2000 20 blind 
total pot: 140 

7777: 
HIGH_SINGLE 0.0
BIG_PAIR 0.09862671
SMALL_PAIR 0.0943847
LOW_SINGLE 0.63752735
4444: 
HIGH_SINGLE 0.115566045
SMALL_FLUSH 0.26473427
LOW_SINGLE 0.39016616
To server: call 

notify
7777 1540 2000 40 call 
4444 940 2000 40 call 
2222 10600 2000 40 check 
6666 3340 2000 40 call 
5555 2240 2000 40 call 
8888 1100 2000 40 call 
total pot: 240 

flop
CLUBS 9 
HEARTS 10 
HEARTS 3 

inquire
7777 1540 2000 40 check 
4444 940 2000 40 check 
2222 10600 2000 40 check 
6666 3340 2000 40 check 
5555 2240 2000 40 call 
8888 1100 2000 40 call 
total pot: 240 

7777: 
LOW_ONE_PAIR 0.10836763
HIGH_CARD 0.0
HIGH_ONE_PAIR 0.108367644
STRAIGHT_1 0.0
4444: 
STRAIGHT_1 0.10769231
HIGH_CARD 0.11111111
HIGH_ONE_PAIR 0.26933035
LOW_ONE_PAIR 0.0
2222: 
HIGH_TWO_PAIR 0.32957396
THREE_OF_A_KIND 0.3283208
FLUSH_1 0.0
6666: 
HIGH_CARD 0.13286163
LOW_ONE_PAIR 0.23963584
THREE_OF_A_KIND 0.11908284
HIGH_ONE_PAIR 0.25982833
5555: 
LOW_ONE_PAIR 0.15149836
HIGH_ONE_PAIR 0.45648193
HIGH_CARD 0.0
LOW_TWO_PAIR 0.0
To server: call 

turn
DIAMONDS J 

inquire
7777 1540 2000 40 check 
4444 940 2000 40 check 
2222 10600 2000 40 check 
6666 3340 2000 40 check 
5555 2240 2000 40 check 
8888 1100 2000 40 check 
total pot: 240 

7777: 
HIGH_ONE_PAIR 0.0
STRAIGHT_1 0.0
LOW_ONE_PAIR 0.0
4444: 
FLUSH 0.0
LOW_ONE_PAIR 0.0
HIGH_ONE_PAIR 0.0
HIGH_TWO_PAIR 0.0
LOW_TWO_PAIR 0.0
HIGH_CARD 0.0
2222: 
FULL_HOUSE_UP 0.0
FLUSH_1 0.0
HIGH_TWO_PAIR 0.0
6666: 
THREE_OF_A_KIND 0.0
FLUSH 0.0
HIGH_CARD 0.0
LOW_ONE_PAIR 0.0
HIGH_ONE_PAIR 0.0
HIGH_TWO_PAIR 0.0
LOW_TWO_PAIR 0.0
5555: 
STRAIGHT_1 0.0
LOW_TWO_PAIR 0.0
HIGH_ONE_PAIR 0.0
To server: call 

river
DIAMONDS A 

inquire
7777 1540 2000 40 fold 
4444 940 2000 40 check 
2222 10600 2000 40 check 
6666 3340 2000 40 check 
5555 2240 2000 40 check 
8888 1100 2000 40 check 
total pot: 240 

4444: 
LOW_ONE_PAIR 0.0
FLUSH 0.0
LOW_TWO_PAIR 0.0
HIGH_TWO_PAIR 0.0
HIGH_ONE_PAIR 0.0
2222: 
HIGH_ONE_PAIR 0.0
FULL_HOUSE_UP 0.0
LOW_ONE_PAIR 0.0
6666: 
HIGH_TWO_PAIR 0.0
LOW_TWO_PAIR 0.0
THREE_OF_A_KIND 0.0
HIGH_ONE_PAIR 0.0
FLUSH 0.0
5555: 
HIGH_TWO_PAIR 0.0
LOW_TWO_PAIR 0.0
HIGH_ONE_PAIR 0.0
FLUSH 0.0
To server: fold 

showdown
common/ 
CLUBS 9 
HEARTS 10 
HEARTS 3 
DIAMONDS J 
DIAMONDS A 
/common 
1: 6666 CLUBS A CLUBS 4 ONE_PAIR 
3: 2222 DIAMONDS 4 SPADES 9 ONE_PAIR 
2: 4444 HEARTS 5 SPADES 10 ONE_PAIR 

pot-win
6666: 240 

seat
button: 6666 3580 2000 
small blind: 2222 10600 2000 
big blind: 4444 940 2000 
7777 1540 2000 
8888 1100 2000 
5555 2240 2000 

blind
2222: 20 
4444: 40 

hold
HEARTS 5 
DIAMONDS 3 

inquire
7777 1500 2000 40 call 
4444 900 2000 40 blind 
2222 10580 2000 20 blind 
total pot: 100 

7777: 
SMALL_PAIR 0.09199522
HIGH_SINGLE 0.0
LOW_SINGLE 0.6213875
BIG_PAIR 0.09612984
To server: call 

notify
7777 1500 2000 40 call 
4444 900 2000 40 check 
2222 10560 2000 40 call 
6666 3540 2000 40 call 
5555 2200 2000 40 call 
8888 1060 2000 40 call 
total pot: 240 

flop
CLUBS 6 
DIAMONDS Q 
HEARTS K 

inquire
7777 1500 2000 40 check 
4444 900 2000 40 check 
2222 10560 2000 40 check 
6666 3540 2000 40 call 
5555 2200 2000 40 call 
8888 1060 2000 40 call 
total pot: 240 

7777: 
LOW_ONE_PAIR 0.10562415
HIGH_CARD 0.0
STRAIGHT_1 0.0
HIGH_ONE_PAIR 0.10562416
4444: 
HIGH_ONE_PAIR 0.22604513
HIGH_CARD 0.09325397
LOW_ONE_PAIR 0.0
STRAIGHT_1 0.09038462
2222: 
HIGH_TWO_PAIR 0.3308176
THREE_OF_A_KIND 0.32955974
FLUSH_1 0.0
6666: 
HIGH_CARD 0.12508737
THREE_OF_A_KIND 0.09993792
HIGH_ONE_PAIR 0.24462469
LOW_ONE_PAIR 0.20110965
5555: 
LOW_ONE_PAIR 0.1542037
HIGH_CARD 0.0
LOW_TWO_PAIR 0.0
HIGH_ONE_PAIR 0.44847348
To server: call 

turn
DIAMONDS A 

inquire
7777 1500 2000 40 check 
4444 900 2000 40 check 
2222 10560 2000 40 check 
6666 3540 2000 40 check 
5555 2200 2000 40 check 
8888 1060 2000 40 check 
total pot: 240 

7777: 
HIGH_ONE_PAIR 0.0
LOW_ONE_PAIR 0.0
STRAIGHT_1 0.0
4444: 
LOW_TWO_PAIR 0.0
LOW_ONE_PAIR 0.0
HIGH_CARD 0.0
HIGH_ONE_PAIR 0.0
FLUSH 0.0
HIGH_TWO_PAIR 0.0
2222: 
FULL_HOUSE_UP 0.0
HIGH_TWO_PAIR 0.0
FLUSH_1 0.0
6666: 
THREE_OF_A_KIND 0.0
LOW_ONE_PAIR 0.0
HIGH_TWO_PAIR 0.0
FLUSH 0.0
HIGH_CARD 0.0
HIGH_ONE_PAIR 0.0
LOW_TWO_PAIR 0.0
5555: 
HIGH_ONE_PAIR 0.0
LOW_TWO_PAIR 0.0
STRAIGHT_1 0.0
To server: call 

river
CLUBS 8 

inquire
7777 1500 2000 40 check 
4444 900 2000 40 fold 
2222 10560 2000 40 check 
6666 3540 2000 40 check 
5555 2200 2000 40 check 
8888 1060 2000 40 check 
total pot: 240 

7777: 
LOW_ONE_PAIR 0.0
STRAIGHT 0.0
HIGH_TWO_PAIR 0.0
HIGH_ONE_PAIR 0.0
2222: 
HIGH_ONE_PAIR 0.0
LOW_ONE_PAIR 0.0
FULL_HOUSE_UP 0.0
6666: 
HIGH_ONE_PAIR 0.0
HIGH_TWO_PAIR 0.0
THREE_OF_A_KIND 0.0
FLUSH 0.0
LOW_TWO_PAIR 0.0
5555: 
HIGH_TWO_PAIR 0.0
LOW_TWO_PAIR 0.0
FLUSH 0.0
HIGH_ONE_PAIR 0.0
To server: fold 

showdown
common/ 
CLUBS 6 
DIAMONDS Q 
HEARTS K 
DIAMONDS A 
CLUBS 8 
/common 
1: 2222 SPADES 8 SPADES 9 ONE_PAIR 
2: 7777 DIAMONDS 6 CLUBS 9 ONE_PAIR 
1: 5555 CLUBS 7 DIAMONDS 8 ONE_PAIR 

pot-win
2222: 120 
5555: 120 

seat
button: 2222 10680 2000 
small blind: 4444 900 2000 
big blind: 7777 1500 2000 
8888 1060 2000 
5555 2320 2000 
6666 3540 2000 

blind
4444: 20 
7777: 40 

hold
DIAMONDS 3 
SPADES A 

inquire
7777 1460 2000 40 blind 
4444 880 2000 20 blind 
total pot: 60 

To server: call 

notify
7777 1460 2000 40 check 
4444 860 2000 40 call 
2222 10640 2000 40 call 
6666 3500 2000 40 call 
5555 2280 2000 40 call 
8888 1020 2000 40 call 
total pot: 240 

flop
DIAMONDS 4 
DIAMONDS 10 
HEARTS 2 

inquire
7777 1460 2000 40 check 
4444 860 2000 40 check 
2222 10640 2000 40 call 
6666 3500 2000 40 call 
5555 2280 2000 40 call 
8888 1020 2000 40 call 
total pot: 240 

7777: 
HIGH_CARD 0.0
LOW_ONE_PAIR 0.09259257
HIGH_ONE_PAIR 0.092592575
STRAIGHT_1 0.0
4444: 
LOW_ONE_PAIR 0.0
HIGH_ONE_PAIR 0.2164262
HIGH_CARD 0.08928572
STRAIGHT_1 0.08653845
2222: 
THREE_OF_A_KIND 0.32709113
HIGH_TWO_PAIR 0.32833958
FLUSH_1 0.0
6666: 
HIGH_CARD 0.12368973
LOW_ONE_PAIR 0.20338207
THREE_OF_A_KIND 0.10106716
HIGH_ONE_PAIR 0.24189146
5555: 
HIGH_CARD 0.087878786
HIGH_ONE_PAIR 0.4257829
LOW_ONE_PAIR 0.13647912
LOW_TWO_PAIR 0.0
To server: call 

turn
CLUBS 9 

inquire
7777 1460 2000 40 check 
4444 860 2000 40 check 
2222 10640 2000 40 check 
6666 3500 2000 40 check 
5555 2280 2000 40 check 
8888 1020 2000 40 check 
total pot: 240 

7777: 
LOW_ONE_PAIR 0.0
STRAIGHT_1 0.0
HIGH_ONE_PAIR 0.0
4444: 
HIGH_TWO_PAIR 0.0
LOW_ONE_PAIR 0.0
LOW_TWO_PAIR 0.0
FLUSH 0.0
HIGH_ONE_PAIR 0.0
HIGH_CARD 0.0
2222: 
FLUSH_1 0.0
FULL_HOUSE_UP 0.0
HIGH_TWO_PAIR 0.0
6666: 
THREE_OF_A_KIND 0.0
HIGH_ONE_PAIR 0.0
LOW_TWO_PAIR 0.0
HIGH_CARD 0.0
LOW_ONE_PAIR 0.0
HIGH_TWO_PAIR 0.0
FLUSH 0.0
5555: 
HIGH_CARD 0.0
HIGH_ONE_PAIR 0.0
STRAIGHT_1 0.0
LOW_TWO_PAIR 0.0
To server: call 

river
SPADES 3 

inquire
7777 1460 2000 40 fold 
4444 860 2000 40 fold 
2222 10640 2000 40 check 
6666 3500 2000 40 check 
5555 2280 2000 40 check 
8888 1020 2000 40 check 
total pot: 240 

2222: 
HIGH_ONE_PAIR 0.0
LOW_ONE_PAIR 0.0
FULL_HOUSE_UP 0.0
6666: 
FLUSH 0.0
HIGH_TWO_PAIR 0.0
HIGH_ONE_PAIR 0.0
THREE_OF_A_KIND 0.0
LOW_TWO_PAIR 0.0
5555: 
LOW_ONE_PAIR 0.0
LOW_TWO_PAIR 0.0
FLUSH 0.0
HIGH_ONE_PAIR 0.0
HIGH_TWO_PAIR 0.0
To server: call 

showdown
common/ 
DIAMONDS 4 
DIAMONDS 10 
HEARTS 2 
CLUBS 9 
SPADES 3 
/common 
3: 8888 DIAMONDS 3 SPADES A ONE_PAIR 
1: 5555 SPADES 9 HEARTS Q ONE_PAIR 
2: 2222 SPADES 5 CLUBS 4 ONE_PAIR 

pot-win
5555: 240 

seat
button: 4444 860 2000 
small blind: 7777 1460 2000 
big blind: 8888 1020 2000 
5555 2520 2000 
6666 3500 2000 
2222 10640 2000 

blind
7777: 20 
8888: 40 

hold
CLUBS 10 
CLUBS 6 

inquire
7777 1420 2000 40 call 
4444 820 2000 40 call 
2222 10600 2000 40 call 
6666 3460 2000 40 call 
5555 2480 2000 40 call 
8888 980 2000 40 blind 
total pot: 240 

7777: 
BIG_PAIR 0.08202247
SMALL_PAIR 0.07849462
HIGH_SINGLE 0.0
LOW_SINGLE 0.625002
4444: 
HIGH_SINGLE 0.09014675
LOW_SINGLE 0.40185297
SMALL_FLUSH 0.20650475
2222: 
SMALL_PAIR 0.16478698
SMALL_FLUSH 0.67634386
6666: 
SMALL_FLUSH 0.28839836
BIG_FLUSH 0.049714286
LOW_SINGLE 0.42566854
HIGH_SINGLE 0.08971428
5555: 
SMALL_FLUSH 0.11456629
HIGH_SINGLE 0.115879446
LOW_SINGLE 0.48605722
BIG_PAIR 0.053724054
To server: call 

flop
SPADES 4 
CLUBS 3 
DIAMONDS 3 

inquire
7777 1420 2000 40 check 
4444 820 2000 40 call 
2222 10600 2000 40 call 
6666 3460 2000 40 call 
5555 2480 2000 40 call 
8888 980 2000 40 check 
total pot: 240 

7777: 
STRAIGHT_1 0.0
HIGH_CARD 0.0
HIGH_ONE_PAIR 0.09012344
LOW_ONE_PAIR 0.090123445
4444: 
STRAIGHT_1 0.08269231
LOW_ONE_PAIR 0.0
HIGH_CARD 0.08531746
HIGH_ONE_PAIR 0.20680726
2222: 
FLUSH_1 0.0
THREE_OF_A_KIND 0.3283208
HIGH_TWO_PAIR 0.32957396
6666: 
HIGH_CARD 0.122292094
LOW_ONE_PAIR 0.20570645
HIGH_ONE_PAIR 0.23915823
THREE_OF_A_KIND 0.10222222
5555: 
HIGH_CARD 0.1731321
LOW_TWO_PAIR 0.0
HIGH_ONE_PAIR 0.42691228
LOW_ONE_PAIR 0.11598228
To server: call 

turn
SPADES 3 

inquire
7777 0 2000 1460 all_in 
4444 820 2000 40 check 
2222 10600 2000 40 check 
6666 3460 2000 40 check 
5555 2480 2000 40 check 
8888 980 2000 40 check 
total pot: 1660 

7777: 
HIGH_ONE_PAIR 0.0
STRAIGHT_1 0.0
LOW_ONE_PAIR 0.0
4444: 
HIGH_CARD 0.0
HIGH_ONE_PAIR 0.0
LOW_ONE_PAIR 0.0
LOW_TWO_PAIR 0.0
HIGH_TWO_PAIR 0.0
FLUSH 0.0
2222: 
FLUSH_1 0.0
FULL_HOUSE_UP 0.0
HIGH_TWO_PAIR 0.0
6666: 
THREE_OF_A_KIND 0.0
LOW_ONE_PAIR 0.0
FLUSH 0.0
LOW_TWO_PAIR 0.0
HIGH_TWO_PAIR 0.0
HIGH_ONE_PAIR 0.0
HIGH_CARD 0.0
5555: 
LOW_TWO_PAIR 0.0
HIGH_CARD 0.0
STRAIGHT_1 0.0
HIGH_ONE_PAIR 0.0
To server: fold 

notify
7777 0 2000 1460 all_in 
4444 820 2000 40 fold 
2222 9180 2000 1460 call 
6666 3460 2000 40 fold 
5555 2480 2000 40 fold 
8888 980 2000 40 fold 
total pot: 3080 

river
HEARTS 4 

showdown
common/ 
SPADES 4 
CLUBS 3 
DIAMONDS 3 
SPADES 3 
HEARTS 4 
/common 
1: 7777 DIAMONDS A HEARTS A FULL_HOUSE 
2: 2222 HEARTS 8 SPADES A FULL_HOUSE 

pot-win
7777: 3080 

seat
button: 7777 3080 2000 
small blind: 8888 980 2000 
big blind: 5555 2480 2000 
6666 3460 2000 
2222 9180 2000 
4444 820 2000 

blind
8888: 20 
5555: 40 

hold
SPADES 8 
DIAMONDS 5 

inquire
7777 3040 2000 40 call 
4444 780 2000 40 call 
2222 9140 2000 40 call 
6666 3420 2000 40 call 
5555 2440 2000 40 blind 
8888 960 2000 20 blind 
total pot: 220 

7777: 
BIG_PAIR 0.09469879
LOW_SINGLE 0.33785015
HIGH_SINGLE 0.0
SMALL_PAIR 0.054899648
4444: 
HIGH_SINGLE 0.085953884
LOW_SINGLE 0.38316214
SMALL_FLUSH 0.19689986
2222: 
SMALL_FLUSH 0.58353734
SMALL_PAIR 0.14543726
6666: 
LOW_SINGLE 0.42080373
SMALL_FLUSH 0.29173246
HIGH_SINGLE 0.09075144
BIG_FLUSH 0.050289016
To server: call 

flop
CLUBS 2 
HEARTS K 
HEARTS 4 

inquire
7777 3040 2000 40 call 
4444 780 2000 40 call 
2222 9140 2000 40 call 
6666 3420 2000 40 call 
5555 2440 2000 40 check 
8888 940 2000 40 call 
total pot: 240 

7777: 
HIGH_TWO_PAIR 0.0
STRAIGHT_1 0.0
HIGH_ONE_PAIR 0.17283951
LOW_ONE_PAIR 0.17283951
HIGH_CARD 0.0
4444: 
STRAIGHT_1 0.07884616
LOW_ONE_PAIR 0.0
HIGH_CARD 0.08134921
HIGH_ONE_PAIR 0.19718832
2222: 
FLUSH_1 0.0
THREE_OF_A_KIND 0.29198474
HIGH_TWO_PAIR 0.2908745
6666: 
LOW_ONE_PAIR 0.20808455
HIGH_CARD 0.12089447
THREE_OF_A_KIND 0.10340398
HIGH_ONE_PAIR 0.236425
5555: 
LOW_TWO_PAIR 0.0
LOW_ONE_PAIR 0.11785294
HIGH_ONE_PAIR 0.42013595
HIGH_CARD 0.17038399
To server: call 

turn
CLUBS 6 

inquire
7777 3040 2000 40 check 
4444 780 2000 40 check 
2222 9140 2000 40 check 
6666 3420 2000 40 check 
5555 2440 2000 40 check 
8888 940 2000 40 check 
total pot: 240 

7777: 
LOW_ONE_PAIR 0.0
STRAIGHT_1 0.0
HIGH_ONE_PAIR 0.0
4444: 
HIGH_ONE_PAIR 0.0
HIGH_TWO_PAIR 0.0
LOW_ONE_PAIR 0.0
FLUSH 0.0
LOW_TWO_PAIR 0.0
HIGH_CARD 0.0
2222: 
FLUSH_1 0.0
HIGH_TWO_PAIR 0.0
FULL_HOUSE_UP 0.0
6666: 
THREE_OF_A_KIND 0.0
FLUSH 0.0
HIGH_ONE_PAIR 0.0
HIGH_CARD 0.0
HIGH_TWO_PAIR 0.0
LOW_ONE_PAIR 0.0
LOW_TWO_PAIR 0.0
5555: 
HIGH_CARD 0.0
LOW_TWO_PAIR 0.0
STRAIGHT_1 0.0
HIGH_ONE_PAIR 0.0
To server: call 

river
CLUBS 3 

inquire
7777 3040 2000 40 check 
4444 780 2000 40 check 
2222 9140 2000 40 check 
6666 3420 2000 40 check 
5555 2440 2000 40 check 
8888 940 2000 40 check 
total pot: 240 

7777: 
HIGH_ONE_PAIR 0.0
HIGH_TWO_PAIR 0.0
STRAIGHT 0.0
LOW_ONE_PAIR 0.0
4444: 
LOW_ONE_PAIR 0.0
LOW_TWO_PAIR 0.0
HIGH_TWO_PAIR 0.0
FLUSH 0.0
HIGH_ONE_PAIR 0.0
2222: 
LOW_ONE_PAIR 0.0
HIGH_ONE_PAIR 0.0
6666: 
HIGH_TWO_PAIR 0.0
FLUSH 0.0
THREE_OF_A_KIND 0.0
HIGH_ONE_PAIR 0.0
LOW_TWO_PAIR 0.0
5555: 
FLUSH 0.0
LOW_TWO_PAIR 0.0
LOW_ONE_PAIR 0.0
HIGH_TWO_PAIR 0.0
HIGH_ONE_PAIR 0.0
To server: call 

showdown
common/ 
CLUBS 2 
HEARTS K 
HEARTS 4 
CLUBS 6 
CLUBS 3 
/common 
1: 8888 SPADES 8 DIAMONDS 5 STRAIGHT 
3: 5555 CLUBS Q HEARTS Q ONE_PAIR 
2: 6666 DIAMONDS 3 DIAMONDS 2 TWO_PAIR 
4: 2222 HEARTS 8 HEARTS 6 ONE_PAIR 
1: 7777 HEARTS 5 CLUBS 8 STRAIGHT 

pot-win
8888: 120 
7777: 120 

seat
button: 8888 1060 2000 
small blind: 5555 2440 2000 
big blind: 6666 3420 2000 
2222 9140 2000 
4444 780 2000 
7777 3160 2000 

blind
5555: 20 
6666: 40 

hold
DIAMONDS Q 
HEARTS 5 

inquire
7777 3120 2000 40 call 
4444 740 2000 40 call 
2222 9100 2000 40 call 
6666 3380 2000 40 blind 
5555 2420 2000 20 blind 
total pot: 180 

7777: 
LOW_SINGLE 0.36646613
HIGH_SINGLE 0.0
SMALL_PAIR 0.049050633
BIG_PAIR 0.08460957
4444: 
SMALL_FLUSH 0.187295
HIGH_SINGLE 0.081761
LOW_SINGLE 0.3644713
2222: 
SMALL_PAIR 0.12411732
SMALL_FLUSH 0.64023006
To server: call 

notify
7777 3120 2000 40 call 
4444 740 2000 40 call 
2222 9100 2000 40 call 
6666 3380 2000 40 check 
5555 2400 2000 40 call 
8888 1020 2000 40 call 
total pot: 240 

flop
HEARTS 8 
CLUBS 6 
HEARTS 2 

inquire
7777 3120 2000 40 check 
4444 740 2000 40 check 
2222 9100 2000 40 check 
6666 3380 2000 40 check 
5555 2400 2000 40 check 
8888 1020 2000 40 call 
total pot: 240 

7777: 
HIGH_ONE_PAIR 0.16255143
LOW_ONE_PAIR 0.16255145
HIGH_CARD 0.086622804
STRAIGHT_1 0.0
HIGH_TWO_PAIR 0.0
4444: 
HIGH_CARD 0.07738097
HIGH_ONE_PAIR 0.18756935
STRAIGHT_1 0.07499999
LOW_ONE_PAIR 0.0
2222: 
HIGH_TWO_PAIR 0.21720532
THREE_OF_A_KIND 0.21803436
FLUSH_1 0.25
6666: 
HIGH_CARD 0.107547164
HIGH_ONE_PAIR 0.21032257
LOW_ONE_PAIR 0.28927827
THREE_OF_A_KIND 0.09415205
5555: 
HIGH_ONE_PAIR 0.3838339
LOW_TWO_PAIR 0.0
HIGH_CARD 0.15566187
LOW_ONE_PAIR 0.11122888
To server: call 

turn
SPADES 9 

inquire
7777 3120 2000 40 check 
4444 740 2000 40 check 
2222 9100 2000 40 check 
6666 3380 2000 40 check 
5555 2400 2000 40 check 
8888 1020 2000 40 check 
total pot: 240 

7777: 
LOW_ONE_PAIR 0.0
STRAIGHT_1 0.0
HIGH_ONE_PAIR 0.0
4444: 
HIGH_ONE_PAIR 0.0
HIGH_TWO_PAIR 0.0
FLUSH 0.0
HIGH_CARD 0.0
LOW_ONE_PAIR 0.0
LOW_TWO_PAIR 0.0
2222: 
FULL_HOUSE_UP 0.0
HIGH_TWO_PAIR 0.0
FLUSH_1 0.0
6666: 
HIGH_TWO_PAIR 0.0
HIGH_CARD 0.0
LOW_TWO_PAIR 0.0
LOW_ONE_PAIR 0.0
THREE_OF_A_KIND 0.0
HIGH_ONE_PAIR 0.0
FLUSH 0.0
5555: 
HIGH_ONE_PAIR 0.0
LOW_TWO_PAIR 0.0
STRAIGHT_1 0.0
HIGH_CARD 0.0
To server: call 

river
SPADES 6 

inquire
7777 3120 2000 40 check 
4444 740 2000 40 check 
2222 9100 2000 40 check 
6666 3380 2000 40 check 
5555 2400 2000 40 check 
8888 1020 2000 40 check 
total pot: 240 

7777: 
HIGH_ONE_PAIR 0.0
STRAIGHT 0.0
LOW_ONE_PAIR 0.0
HIGH_TWO_PAIR 0.0
4444: 
LOW_TWO_PAIR 0.0
LOW_ONE_PAIR 0.0
FLUSH 0.0
HIGH_TWO_PAIR 0.0
HIGH_ONE_PAIR 0.0
2222: 
LOW_ONE_PAIR 0.0
HIGH_ONE_PAIR 0.0
6666: 
LOW_TWO_PAIR 0.0
THREE_OF_A_KIND 0.0
HIGH_TWO_PAIR 0.0
HIGH_ONE_PAIR 0.0
FLUSH 0.0
5555: 
HIGH_TWO_PAIR 0.0
LOW_TWO_PAIR 0.0
LOW_ONE_PAIR 0.0
FLUSH 0.0
HIGH_ONE_PAIR 0.0
To server: call 

showdown
common/ 
HEARTS 8 
CLUBS 6 
HEARTS 2 
SPADES 9 
SPADES 6 
/common 
6: 5555 SPADES 5 DIAMONDS 3 ONE_PAIR 
4: 6666 SPADES 2 SPADES 10 TWO_PAIR 
2: 2222 DIAMONDS 8 SPADES Q TWO_PAIR 
3: 4444 SPADES J CLUBS 2 TWO_PAIR 
1: 7777 SPADES K HEARTS 6 THREE_OF_A_KIND 
5: 8888 DIAMONDS Q HEARTS 5 ONE_PAIR 

pot-win
7777: 240 

seat
button: 5555 2400 2000 
small blind: 6666 3380 2000 
big blind: 2222 9100 2000 
4444 740 2000 
7777 3360 2000 
8888 1020 2000 

blind
6666: 20 
2222: 40 

hold
CLUBS 7 
HEARTS 7 

inquire
7777 3320 2000 40 call 
4444 740 2000 0 fold 
2222 9060 2000 40 blind 
6666 3360 2000 20 blind 
total pot: 100 

7777: 
BIG_PAIR 0.07345227
HIGH_SINGLE 0.0
SMALL_PAIR 0.04258242
LOW_SINGLE 0.37675908
To server: call 

notify
7777 3320 2000 40 call 
4444 740 2000 0 fold 
2222 9060 2000 40 check 
6666 3340 2000 40 call 
5555 2360 2000 40 call 
8888 980 2000 40 call 
total pot: 200 

flop
DIAMONDS 4 
HEARTS 9 
CLUBS 3 

inquire
7777 3320 2000 40 check 
4444 740 2000 0 fold 
2222 9060 2000 40 check 
6666 3340 2000 40 check 
5555 2360 2000 40 call 
8888 980 2000 40 call 
total pot: 200 

7777: 
HIGH_TWO_PAIR 0.0
HIGH_ONE_PAIR 0.15954414
HIGH_CARD 0.08502025
LOW_ONE_PAIR 0.15954414
STRAIGHT_1 0.0
2222: 
FLUSH_1 0.2489059
THREE_OF_A_KIND 0.21708015
HIGH_TWO_PAIR 0.21625474
6666: 
THREE_OF_A_KIND 0.0866057
LOW_ONE_PAIR 0.27952754
HIGH_ONE_PAIR 0.18896605
HIGH_CARD 0.09662665
5555: 
LOW_TWO_PAIR 0.0
STRAIGHT_1 0.0
LOW_ONE_PAIR 0.10554387
HIGH_CARD 0.14290269
HIGH_ONE_PAIR 0.35237205
To server: call 

turn
CLUBS K 

inquire
7777 3320 2000 40 check 
4444 740 2000 0 fold 
2222 9060 2000 40 check 
6666 3340 2000 40 check 
5555 2360 2000 40 check 
8888 980 2000 40 check 
total pot: 200 

7777: 
LOW_ONE_PAIR 0.0
STRAIGHT_1 0.0
HIGH_ONE_PAIR 0.0
2222: 
FULL_HOUSE_UP 0.0
FLUSH_1 0.0
HIGH_TWO_PAIR 0.0
6666: 
LOW_TWO_PAIR 0.0
FLUSH 0.0
THREE_OF_A_KIND 0.0
HIGH_ONE_PAIR 0.0
LOW_ONE_PAIR 0.0
HIGH_CARD 0.0
HIGH_TWO_PAIR 0.0
5555: 
HIGH_ONE_PAIR 0.0
HIGH_CARD 0.0
STRAIGHT_1 0.0
LOW_TWO_PAIR 0.0
To server: call 

river
SPADES 7 

inquire
7777 3320 2000 40 check 
4444 740 2000 0 fold 
2222 9060 2000 40 check 
6666 3340 2000 40 fold 
5555 2360 2000 40 check 
8888 980 2000 40 check 
total pot: 200 

7777: 
HIGH_ONE_PAIR 0.0
STRAIGHT 0.0
THREE_OF_A_KIND 0.0
LOW_ONE_PAIR 0.0
HIGH_TWO_PAIR 0.0
2222: 
HIGH_ONE_PAIR 0.0
LOW_ONE_PAIR 0.0
5555: 
HIGH_ONE_PAIR 0.0
FLUSH 0.0
LOW_ONE_PAIR 0.0
HIGH_TWO_PAIR 0.0
LOW_TWO_PAIR 0.0
To server: call 

showdown
common/ 
DIAMONDS 4 
HEARTS 9 
CLUBS 3 
CLUBS K 
SPADES 7 
/common 
4: 2222 CLUBS A SPADES 2 HIGH_CARD 
3: 7777 CLUBS J DIAMONDS 3 ONE_PAIR 
1: 8888 CLUBS 7 HEARTS 7 THREE_OF_A_KIND 
2: 5555 SPADES 9 CLUBS 5 ONE_PAIR 

pot-win
8888: 200 

seat
button: 6666 3340 2000 
small blind: 2222 9060 2000 
big blind: 4444 740 2000 
7777 3320 2000 
8888 1180 2000 
5555 2360 2000 

blind
2222: 20 
4444: 40 

hold
DIAMONDS 9 
DIAMONDS A 

inquire
7777 3280 2000 40 call 
4444 700 2000 40 blind 
2222 9040 2000 20 blind 
total pot: 100 

7777: 
LOW_SINGLE 0.41219038
BIG_PAIR 0.069027424
SMALL_PAIR 0.040017214
HIGH_SINGLE 0.0
To server: call 

notify
7777 3280 2000 40 call 
4444 700 2000 40 check 
2222 9020 2000 40 call 
6666 3300 2000 40 call 
5555 2320 2000 40 call 
8888 1140 2000 40 call 
total pot: 240 

flop
DIAMONDS 8 
CLUBS 6 
CLUBS A 

inquire
7777 3280 2000 40 check 
4444 700 2000 40 check 
2222 9020 2000 40 check 
6666 3300 2000 40 call 
5555 2320 2000 40 call 
8888 1140 2000 40 call 
total pot: 240 

7777: 
STRAIGHT_1 0.0
HIGH_ONE_PAIR 0.14638448
LOW_ONE_PAIR 0.14638448
HIGH_CARD 0.07800753
HIGH_TWO_PAIR 0.0
4444: 
HIGH_CARD 0.065255746
LOW_ONE_PAIR 0.0
HIGH_ONE_PAIR 0.15817815
STRAIGHT_1 0.06324785
2222: 
HIGH_TWO_PAIR 0.21530418
THREE_OF_A_KIND 0.21612595
FLUSH_1 0.24781182
6666: 
HIGH_ONE_PAIR 0.18672977
HIGH_CARD 0.09548313
LOW_ONE_PAIR 0.27621955
THREE_OF_A_KIND 0.0876429
5555: 
HIGH_ONE_PAIR 0.387343
HIGH_CARD 0.13173842
LOW_TWO_PAIR 0.0
STRAIGHT_1 0.0
LOW_ONE_PAIR 0.10062444
To server: call 

turn
CLUBS 4 

inquire
7777 3280 2000 40 check 
4444 700 2000 40 check 
2222 9020 2000 40 check 
6666 3300 2000 40 check 
5555 2320 2000 40 check 
8888 1140 2000 40 check 
total pot: 240 

7777: 
HIGH_ONE_PAIR 0.0
LOW_ONE_PAIR 0.0
STRAIGHT_1 0.0
4444: 
FLUSH 0.0
LOW_ONE_PAIR 0.0
HIGH_TWO_PAIR 0.0
HIGH_CARD 0.0
HIGH_ONE_PAIR 0.0
LOW_TWO_PAIR 0.0
2222: 
HIGH_TWO_PAIR 0.0
FULL_HOUSE_UP 0.0
FLUSH_1 0.0
6666: 
LOW_ONE_PAIR 0.0
THREE_OF_A_KIND 0.0
HIGH_ONE_PAIR 0.0
HIGH_CARD 0.0
LOW_TWO_PAIR 0.0
FLUSH 0.0
HIGH_TWO_PAIR 0.0
5555: 
HIGH_CARD 0.0
STRAIGHT_1 0.0
LOW_TWO_PAIR 0.0
HIGH_ONE_PAIR 0.0
To server: call 

river
HEARTS 9 

inquire
7777 3280 2000 40 check 
4444 700 2000 40 check 
2222 9020 2000 40 check 
6666 3300 2000 40 check 
5555 2320 2000 40 check 
8888 1140 2000 40 check 
total pot: 240 

7777: 
STRAIGHT 0.0
LOW_ONE_PAIR 0.0
HIGH_TWO_PAIR 0.0
HIGH_ONE_PAIR 0.0
THREE_OF_A_KIND 0.0
4444: 
LOW_ONE_PAIR 0.0
HIGH_ONE_PAIR 0.0
HIGH_TWO_PAIR 0.0
FLUSH 0.0
LOW_TWO_PAIR 0.0
2222: 
HIGH_ONE_PAIR 0.0
LOW_ONE_PAIR 0.0
6666: 
HIGH_TWO_PAIR 0.0
HIGH_ONE_PAIR 0.0
THREE_OF_A_KIND 0.0
LOW_TWO_PAIR 0.0
FLUSH 0.0
5555: 
HIGH_ONE_PAIR 0.0
FLUSH 0.0
LOW_TWO_PAIR 0.0
LOW_ONE_PAIR 0.0
HIGH_TWO_PAIR 0.0
To server: call 

showdown
common/ 
DIAMONDS 8 
CLUBS 6 
CLUBS A 
CLUBS 4 
HEARTS 9 
/common 
5: 2222 SPADES J HEARTS 2 HIGH_CARD 
2: 4444 SPADES 8 CLUBS 5 ONE_PAIR 
3: 7777 SPADES 6 SPADES Q ONE_PAIR 
1: 8888 DIAMONDS 9 DIAMONDS A TWO_PAIR 
4: 6666 HEARTS J SPADES 4 ONE_PAIR 

pot-win
8888: 240 

seat
button: 2222 9020 2000 
small blind: 4444 700 2000 
big blind: 7777 3280 2000 
8888 1380 2000 
5555 2320 2000 
6666 3300 2000 

blind
4444: 20 
7777: 40 

hold
SPADES 2 
DIAMONDS 8 

inquire
7777 3240 2000 40 blind 
4444 680 2000 20 blind 
total pot: 60 

To server: fold 

notify
7777 3240 2000 40 check 
4444 660 2000 40 call 
2222 8980 2000 40 call 
6666 3260 2000 40 call 
5555 2280 2000 40 call 
8888 1380 2000 0 fold 
total pot: 200 

flop
DIAMONDS 4 
HEARTS K 
HEARTS A 

notify
7777 3240 2000 40 check 
4444 660 2000 40 check 
2222 8980 2000 40 call 
6666 3260 2000 40 call 
5555 2280 2000 40 call 
8888 1380 2000 0 fold 
total pot: 200 

turn
CLUBS 2 

notify
7777 3240 2000 40 check 
4444 660 2000 40 check 
2222 8980 2000 40 check 
6666 3260 2000 40 check 
5555 2280 2000 40 check 
8888 1380 2000 0 fold 
total pot: 200 

river
CLUBS A 

notify
7777 3240 2000 40 check 
4444 660 2000 40 check 
2222 8980 2000 40 check 
6666 3260 2000 40 check 
5555 2280 2000 40 check 
8888 1380 2000 0 fold 
total pot: 200 

showdown
common/ 
DIAMONDS 4 
HEARTS K 
HEARTS A 
CLUBS 2 
CLUBS A 
/common 
3: 4444 CLUBS 5 CLUBS Q ONE_PAIR 
4: 7777 DIAMONDS 5 SPADES 8 ONE_PAIR 
2: 5555 SPADES 4 SPADES 5 TWO_PAIR 
5: 6666 CLUBS 7 DIAMONDS 6 ONE_PAIR 
1: 2222 SPADES Q DIAMONDS A THREE_OF_A_KIND 

pot-win
2222: 200 

seat
button: 4444 660 2000 
small blind: 7777 3240 2000 
big blind: 8888 1380 2000 
5555 2280 2000 
6666 3260 2000 
2222 9180 2000 

blind
7777: 20 
8888: 40 

hold
DIAMONDS K 
HEARTS J 

inquire
7777 3200 2000 40 call 
4444 620 2000 40 call 
2222 9140 2000 40 call 
6666 3220 2000 40 call 
5555 2240 2000 40 call 
8888 1340 2000 40 blind 
total pot: 240 

7777: 
SMALL_FLUSH 0.060993973
SMALL_PAIR 0.03587963
LOW_SINGLE 0.44718206
BIG_PAIR 0.061890334
HIGH_SINGLE 0.0
4444: 
SMALL_FLUSH 0.1974317
HIGH_SINGLE 0.051886793
LOW_SINGLE 0.3018119
2222: 
SMALL_FLUSH 0.64303195
SMALL_PAIR 0.12466051
6666: 
SMALL_FLUSH 0.27492073
LOW_SINGLE 0.4234803
HIGH_SINGLE 0.068799295
BIG_FLUSH 0.03812445
5555: 
SMALL_FLUSH 0.15513033
HIGH_SINGLE 0.09794145
LOW_SINGLE 0.53241706
BIG_PAIR 0.10623674
To server: call 

flop
DIAMONDS 4 
HEARTS 2 
CLUBS 7 

inquire
7777 3200 2000 40 check 
4444 620 2000 40 call 
2222 9140 2000 40 call 
6666 3220 2000 40 call 
5555 2240 2000 40 call 
8888 1340 2000 40 check 
total pot: 240 

7777: 
LOW_ONE_PAIR 0.125
HIGH_CARD 0.06661184
HIGH_ONE_PAIR 0.12499999
HIGH_TWO_PAIR 0.0
STRAIGHT_1 0.0
4444: 
STRAIGHT_1 0.04615384
HIGH_ONE_PAIR 0.115427285
HIGH_CARD 0.047619045
LOW_ONE_PAIR 0.0
2222: 
FLUSH_1 0.2510941
THREE_OF_A_KIND 0.21898855
HIGH_TWO_PAIR 0.21815589
6666: 
HIGH_CARD 0.23177202
HIGH_ONE_PAIR 0.15421765
LOW_ONE_PAIR 0.22812605
THREE_OF_A_KIND 0.07597923
5555: 
LOW_TWO_PAIR 0.0
LOW_ONE_PAIR 0.15569717
STRAIGHT_1 0.0
HIGH_CARD 0.11978609
HIGH_ONE_PAIR 0.35220024
To server: call 

turn
SPADES 6 

inquire
7777 3200 2000 40 check 
4444 620 2000 40 check 
2222 9140 2000 40 check 
6666 3220 2000 40 check 
5555 2240 2000 40 check 
8888 1340 2000 40 check 
total pot: 240 

7777: 
STRAIGHT_1 0.0
HIGH_ONE_PAIR 0.0
LOW_ONE_PAIR 0.0
4444: 
HIGH_ONE_PAIR 0.0
LOW_ONE_PAIR 0.0
LOW_TWO_PAIR 0.0
FLUSH 0.0
HIGH_TWO_PAIR 0.0
STRAIGHT_1 0.0
HIGH_CARD 0.0
2222: 
FULL_HOUSE_UP 0.0
FLUSH_1 0.0
HIGH_TWO_PAIR 0.0
6666: 
HIGH_CARD 0.0
HIGH_TWO_PAIR 0.0
FLUSH 0.0
THREE_OF_A_KIND 0.0
HIGH_ONE_PAIR 0.0
LOW_ONE_PAIR 0.0
LOW_TWO_PAIR 0.0
5555: 
HIGH_CARD 0.0
STRAIGHT_1 0.0
LOW_TWO_PAIR 0.0
LOW_ONE_PAIR 0.0
HIGH_ONE_PAIR 0.0
To server: call 

river
SPADES A 

inquire
7777 3200 2000 40 check 
4444 620 2000 40 check 
2222 9140 2000 40 check 
6666 3220 2000 40 check 
5555 2240 2000 40 check 
8888 1340 2000 40 check 
total pot: 240 

7777: 
HIGH_ONE_PAIR 0.0
THREE_OF_A_KIND 0.0
LOW_ONE_PAIR 0.0
STRAIGHT 0.0
HIGH_TWO_PAIR 0.0
4444: 
LOW_ONE_PAIR 0.0
FLUSH 0.0
HIGH_TWO_PAIR 0.0
HIGH_ONE_PAIR 0.0
LOW_TWO_PAIR 0.0
2222: 
THREE_OF_A_KIND 0.0
LOW_ONE_PAIR 0.0
HIGH_ONE_PAIR 0.0
6666: 
THREE_OF_A_KIND 0.0
HIGH_ONE_PAIR 0.0
LOW_ONE_PAIR 0.0
LOW_TWO_PAIR 0.0
HIGH_TWO_PAIR 0.0
FLUSH 0.0
5555: 
HIGH_TWO_PAIR 0.0
FLUSH 0.0
HIGH_ONE_PAIR 0.0
LOW_ONE_PAIR 0.0
LOW_TWO_PAIR 0.0
To server: fold 

showdown
common/ 
DIAMONDS 4 
HEARTS 2 
CLUBS 7 
SPADES 6 
SPADES A 
/common 
1: 7777 HEARTS A DIAMONDS 8 ONE_PAIR 
2: 6666 DIAMONDS 10 HEARTS 10 ONE_PAIR 
4: 2222 DIAMONDS 5 CLUBS 10 HIGH_CARD 
3: 4444 CLUBS 4 SPADES 5 ONE_PAIR 

pot-win
7777: 240 

seat
button: 7777 3440 2000 
small blind: 8888 1340 2000 
big blind: 5555 2240 2000 
6666 3220 2000 
2222 9140 2000 
4444 620 2000 

blind
8888: 20 
5555: 40 

hold
HEARTS 10 
DIAMONDS 2 

inquire
7777 3400 2000 40 call 
4444 580 2000 40 call 
2222 9100 2000 40 call 
6666 3180 2000 40 call 
5555 2200 2000 40 blind 
8888 1320 2000 20 blind 
total pot: 220 

7777: 
BIG_PAIR 0.054863118
HIGH_SINGLE 0.0
SMALL_FLUSH 0.056771547
SMALL_PAIR 0.031805746
LOW_SINGLE 0.44541955
4444: 
HIGH_SINGLE 0.044992745
SMALL_FLUSH 0.17119953
LOW_SINGLE 0.3339721
2222: 
SMALL_PAIR 0.12411732
SMALL_FLUSH 0.64023006
6666: 
BIG_PAIR 0.06584867
LOW_SINGLE 0.3903986
SMALL_FLUSH 0.25344428
BIG_FLUSH 0.036024846
HIGH_SINGLE 0.065010354
To server: call 

flop
DIAMONDS 9 
HEARTS 9 
SPADES J 

inquire
7777 3400 2000 40 call 
4444 580 2000 40 call 
2222 9100 2000 40 call 
6666 3180 2000 40 call 
5555 2200 2000 40 check 
8888 1300 2000 40 call 
total pot: 240 

7777: 
HIGH_TWO_PAIR 0.0
HIGH_CARD 0.06656348
HIGH_ONE_PAIR 0.12490922
LOW_ONE_PAIR 0.12490923
STRAIGHT_1 0.0
4444: 
HIGH_CARD 0.0410053
LOW_ONE_PAIR 0.083333336
HIGH_ONE_PAIR 0.09939572
STRAIGHT_1 0.03974359
2222: 
HIGH_TWO_PAIR 0.21720532
FLUSH_1 0.25
THREE_OF_A_KIND 0.21803436
6666: 
LOW_ONE_PAIR 0.20923217
HIGH_ONE_PAIR 0.21287356
HIGH_CARD 0.21257615
THREE_OF_A_KIND 0.071428575
5555: 
LOW_ONE_PAIR 0.15847747
STRAIGHT_1 0.0
HIGH_CARD 0.11768457
LOW_TWO_PAIR 0.0
HIGH_ONE_PAIR 0.34602126
To server: call 

turn
DIAMONDS 5 

inquire
7777 3400 2000 40 check 
4444 580 2000 40 check 
2222 9100 2000 40 check 
6666 3180 2000 40 check 
5555 2200 2000 40 check 
8888 1300 2000 40 check 
total pot: 240 

7777: 
STRAIGHT_1 0.0
LOW_ONE_PAIR 0.0
HIGH_ONE_PAIR 0.0
4444: 
HIGH_ONE_PAIR 0.0
HIGH_CARD 0.0
LOW_ONE_PAIR 0.0
HIGH_TWO_PAIR 0.0
FLUSH 0.0
LOW_TWO_PAIR 0.0
STRAIGHT_1 0.0
2222: 
FLUSH_1 0.0
HIGH_TWO_PAIR 0.0
FULL_HOUSE_UP 0.0
6666: 
HIGH_CARD 0.0
THREE_OF_A_KIND 0.0
HIGH_ONE_PAIR 0.0
LOW_ONE_PAIR 0.0
HIGH_TWO_PAIR 0.0
FLUSH 0.0
LOW_TWO_PAIR 0.0
5555: 
LOW_TWO_PAIR 0.0
LOW_ONE_PAIR 0.0
STRAIGHT_1 0.0
HIGH_ONE_PAIR 0.0
HIGH_CARD 0.0
To server: call 

river
HEARTS 8 

inquire
7777 3400 2000 40 check 
4444 580 2000 40 check 
2222 9100 2000 40 check 
6666 3180 2000 40 check 
5555 2200 2000 40 check 
8888 1300 2000 40 check 
total pot: 240 

7777: 
THREE_OF_A_KIND 0.0
HIGH_TWO_PAIR 0.0
STRAIGHT 0.0
LOW_ONE_PAIR 0.0
HIGH_ONE_PAIR 0.0
4444: 
FLUSH 0.0
HIGH_TWO_PAIR 0.0
LOW_TWO_PAIR 0.0
HIGH_ONE_PAIR 0.0
LOW_ONE_PAIR 0.0
2222: 
THREE_OF_A_KIND 0.0
LOW_ONE_PAIR 0.0
HIGH_ONE_PAIR 0.0
6666: 
HIGH_ONE_PAIR 0.0
FLUSH 0.0
HIGH_TWO_PAIR 0.0
LOW_TWO_PAIR 0.0
THREE_OF_A_KIND 0.0
LOW_ONE_PAIR 0.0
5555: 
LOW_TWO_PAIR 0.0
LOW_ONE_PAIR 0.0
HIGH_TWO_PAIR 0.0
FLUSH 0.0
HIGH_ONE_PAIR 0.0
To server: call 

showdown
common/ 
DIAMONDS 9 
HEARTS 9 
SPADES J 
DIAMONDS 5 
HEARTS 8 
/common 
5: 8888 HEARTS 10 DIAMONDS 2 ONE_PAIR 
4: 5555 SPADES K CLUBS A ONE_PAIR 
3: 6666 CLUBS 5 DIAMONDS 7 TWO_PAIR 
3: 2222 SPADES 5 CLUBS 6 TWO_PAIR 
2: 4444 HEARTS 5 SPADES A TWO_PAIR 
1: 7777 CLUBS J HEARTS 3 TWO_PAIR 

pot-win
7777: 240 

seat
button: 8888 1300 2000 
small blind: 5555 2200 2000 
big blind: 6666 3180 2000 
2222 9100 2000 
4444 580 2000 
7777 3640 2000 

blind
5555: 20 
6666: 40 

hold
HEARTS 5 
DIAMONDS 4 

inquire
7777 3640 2000 0 fold 
4444 540 2000 40 call 
2222 9060 2000 40 call 
6666 3140 2000 40 blind 
5555 2180 2000 20 blind 
total pot: 140 

4444: 
HIGH_SINGLE 0.03908356
SMALL_FLUSH 0.14871478
LOW_SINGLE 0.3569297
2222: 
SMALL_PAIR 0.12357414
SMALL_FLUSH 0.63742816
To server: call 

notify
7777 3640 2000 0 fold 
4444 540 2000 40 call 
2222 9060 2000 40 call 
6666 3140 2000 40 check 
5555 2160 2000 40 call 
8888 1260 2000 40 call 
total pot: 200 

flop
SPADES 8 
CLUBS 5 
SPADES J 

inquire
7777 3640 2000 0 fold 
4444 540 2000 40 check 
2222 9060 2000 40 check 
6666 3140 2000 40 check 
5555 2160 2000 40 check 
8888 1260 2000 40 call 
total pot: 200 

4444: 
LOW_ONE_PAIR 0.0719603
HIGH_ONE_PAIR 0.16275366
STRAIGHT_1 0.034319527
HIGH_CARD 0.035409037
2222: 
FLUSH_1 0.2489059
THREE_OF_A_KIND 0.21708015
HIGH_TWO_PAIR 0.21625474
6666: 
HIGH_ONE_PAIR 0.2628806
HIGH_CARD 0.19593978
LOW_ONE_PAIR 0.19285749
THREE_OF_A_KIND 0.06583851
5555: 
HIGH_ONE_PAIR 0.32096222
STRAIGHT_1 0.0
LOW_ONE_PAIR 0.15239449
LOW_TWO_PAIR 0.0
HIGH_CARD 0.109161794
To server: call 

turn
CLUBS Q 

inquire
7777 3640 2000 0 fold 
4444 540 2000 40 check 
2222 9060 2000 40 check 
6666 3140 2000 40 check 
5555 2160 2000 40 check 
8888 1260 2000 40 check 
total pot: 200 

4444: 
HIGH_TWO_PAIR 0.0
STRAIGHT_1 0.0
LOW_ONE_PAIR 0.0
FLUSH 0.0
HIGH_CARD 0.0
HIGH_ONE_PAIR 0.0
LOW_TWO_PAIR 0.0
2222: 
FULL_HOUSE_UP 0.0
HIGH_TWO_PAIR 0.0
FLUSH_1 0.0
6666: 
LOW_ONE_PAIR 0.0
THREE_OF_A_KIND 0.0
LOW_TWO_PAIR 0.0
HIGH_TWO_PAIR 0.0
HIGH_CARD 0.0
FLUSH 0.0
HIGH_ONE_PAIR 0.0
5555: 
HIGH_CARD 0.0
LOW_TWO_PAIR 0.0
STRAIGHT_1 0.0
LOW_ONE_PAIR 0.0
HIGH_ONE_PAIR 0.0
To server: call 

river
HEARTS K 

inquire
7777 3640 2000 0 fold 
4444 540 2000 40 fold 
2222 9060 2000 40 check 
6666 3140 2000 40 check 
5555 2160 2000 40 check 
8888 1260 2000 40 check 
total pot: 200 

2222: 
THREE_OF_A_KIND 0.0
LOW_ONE_PAIR 0.0
HIGH_ONE_PAIR 0.0
6666: 
HIGH_ONE_PAIR 0.0
FLUSH 0.0
HIGH_TWO_PAIR 0.0
LOW_ONE_PAIR 0.0
LOW_TWO_PAIR 0.0
THREE_OF_A_KIND 0.0
5555: 
LOW_ONE_PAIR 0.0
HIGH_TWO_PAIR 0.0
HIGH_ONE_PAIR 0.0
FLUSH 0.0
LOW_TWO_PAIR 0.0
To server: call 

showdown
common/ 
SPADES 8 
CLUBS 5 
SPADES J 
CLUBS Q 
HEARTS K 
/common 
1: 5555 SPADES 5 HEARTS Q TWO_PAIR 
2: 6666 DIAMONDS 8 SPADES 6 ONE_PAIR 
3: 2222 DIAMONDS 5 HEARTS 7 ONE_PAIR 
3: 8888 HEARTS 5 DIAMONDS 4 ONE_PAIR 

pot-win
5555: 200 

seat
button: 5555 2360 2000 
small blind: 6666 3140 2000 
big blind: 2222 9060 2000 
4444 540 2000 
7777 3640 2000 
8888 1260 2000 

blind
6666: 20 
2222: 40 

hold
CLUBS 7 
DIAMONDS 7 

inquire
7777 3600 2000 40 call 
4444 500 2000 40 call 
2222 9020 2000 40 blind 
6666 3120 2000 20 blind 
total pot: 140 

7777: 
BIG_PAIR 0.048968177
SMALL_FLUSH 0.050671555
LOW_SINGLE 0.4432718
SMALL_PAIR 0.028388279
HIGH_SINGLE 0.0
4444: 
LOW_SINGLE 0.3323138
SMALL_FLUSH 0.1384586
HIGH_SINGLE 0.03638814
To server: call 

notify
7777 3600 2000 40 call 
4444 500 2000 40 call 
2222 9020 2000 40 check 
6666 3100 2000 40 call 
5555 2320 2000 40 call 
8888 1220 2000 40 call 
total pot: 240 

flop
SPADES 10 
SPADES 6 
DIAMONDS 2 

inquire
7777 3600 2000 40 check 
4444 500 2000 40 check 
2222 9020 2000 40 check 
6666 3100 2000 40 check 
5555 2320 2000 40 call 
8888 1220 2000 40 call 
total pot: 240 

7777: 
HIGH_TWO_PAIR 0.059477124
HIGH_CARD 0.06652047
HIGH_ONE_PAIR 0.124828525
STRAIGHT_1 0.0
LOW_ONE_PAIR 0.124828525
4444: 
HIGH_CARD 0.032967046
LOW_ONE_PAIR 0.06699751
HIGH_ONE_PAIR 0.15152925
STRAIGHT_1 0.031952657
2222: 
FLUSH_1 0.24781182
HIGH_TWO_PAIR 0.21530418
THREE_OF_A_KIND 0.21612595
6666: 
HIGH_CARD 0.18138291
LOW_ONE_PAIR 0.17852962
HIGH_ONE_PAIR 0.24335054
THREE_OF_A_KIND 0.060947206
5555: 
LOW_TWO_PAIR 0.0
HIGH_ONE_PAIR 0.3261836
HIGH_CARD 0.11093762
STRAIGHT_1 0.0
LOW_ONE_PAIR 0.1852407
To server: call 

turn
HEARTS 2 

inquire
7777 3600 2000 40 check 
4444 500 2000 40 check 
2222 9020 2000 40 check 
6666 3100 2000 40 check 
5555 2320 2000 40 check 
8888 1220 2000 40 check 
total pot: 240 

7777: 
STRAIGHT_1 0.0
HIGH_ONE_PAIR 0.0
LOW_ONE_PAIR 0.0
HIGH_TWO_PAIR 0.0
4444: 
LOW_ONE_PAIR 0.0
HIGH_ONE_PAIR 0.0
HIGH_TWO_PAIR 0.0
STRAIGHT_1 0.0
HIGH_CARD 0.0
LOW_TWO_PAIR 0.0
FLUSH 0.0
2222: 
HIGH_TWO_PAIR 0.0
FLUSH_1 0.0
FULL_HOUSE_UP 0.0
6666: 
LOW_ONE_PAIR 0.0
FLUSH 0.0
HIGH_ONE_PAIR 0.0
HIGH_CARD 0.0
LOW_TWO_PAIR 0.0
HIGH_TWO_PAIR 0.0
THREE_OF_A_KIND 0.0
5555: 
LOW_ONE_PAIR 0.0
HIGH_CARD 0.0
HIGH_TWO_PAIR 0.0
STRAIGHT_1 0.0
HIGH_ONE_PAIR 0.0
LOW_TWO_PAIR 0.0
To server: call 

river
DIAMONDS Q 

inquire
7777 3600 2000 40 check 
4444 500 2000 40 check 
2222 9020 2000 40 check 
6666 3100 2000 40 check 
5555 2320 2000 40 check 
8888 1220 2000 40 check 
total pot: 240 

7777: 
HIGH_ONE_PAIR 0.0
HIGH_TWO_PAIR 0.0
LOW_ONE_PAIR 0.0
STRAIGHT 0.0
THREE_OF_A_KIND 0.0
4444: 
HIGH_TWO_PAIR 0.0
HIGH_ONE_PAIR 0.0
FLUSH 0.0
LOW_ONE_PAIR 0.0
LOW_TWO_PAIR 0.0
2222: 
HIGH_ONE_PAIR 0.0
THREE_OF_A_KIND 0.0
LOW_ONE_PAIR 0.0
6666: 
THREE_OF_A_KIND 0.0
LOW_ONE_PAIR 0.0
FLUSH 0.0
LOW_TWO_PAIR 0.0
HIGH_TWO_PAIR 0.0
HIGH_ONE_PAIR 0.0
5555: 
HIGH_TWO_PAIR 0.0
FLUSH 0.0
LOW_TWO_PAIR 0.0
HIGH_ONE_PAIR 0.0
LOW_ONE_PAIR 0.0
To server: call 

showdown
common/ 
SPADES 10 
SPADES 6 
DIAMONDS 2 
HEARTS 2 
DIAMONDS Q 
/common 
2: 6666 SPADES 5 DIAMONDS 10 TWO_PAIR 
5: 2222 CLUBS 9 CLUBS 8 ONE_PAIR 
1: 4444 CLUBS A CLUBS Q TWO_PAIR 
4: 7777 DIAMONDS 6 DIAMONDS 4 TWO_PAIR 
3: 8888 CLUBS 7 DIAMONDS 7 TWO_PAIR 
6: 5555 DIAMONDS 5 SPADES 7 ONE_PAIR 

pot-win
4444: 240 

seat
button: 6666 3100 2000 
small blind: 2222 9020 2000 
big blind: 4444 740 2000 
7777 3600 2000 
8888 1220 2000 
5555 2320 2000 

blind
2222: 20 
4444: 40 

hold
HEARTS 4 
SPADES 5 

inquire
7777 3560 2000 40 call 
4444 700 2000 40 blind 
2222 9000 2000 20 blind 
total pot: 100 

7777: 
HIGH_SINGLE 0.0
BIG_PAIR 0.04690636
LOW_SINGLE 0.42460772
SMALL_PAIR 0.027192982
SMALL_FLUSH 0.1015393
To server: call 

notify
7777 3560 2000 40 call 
4444 700 2000 40 check 
2222 8980 2000 40 call 
6666 3060 2000 40 call 
5555 2280 2000 40 call 
8888 1180 2000 40 call 
total pot: 240 

flop
HEARTS Q 
HEARTS 8 
CLUBS 8 

inquire
7777 3560 2000 40 check 
4444 700 2000 40 check 
2222 8980 2000 40 check 
6666 3060 2000 40 call 
5555 2280 2000 40 call 
8888 1180 2000 40 call 
total pot: 240 

7777: 
STRAIGHT_1 0.0
HIGH_TWO_PAIR 0.055727556
HIGH_CARD 0.06232686
LOW_ONE_PAIR 0.11695908
HIGH_ONE_PAIR 0.11695904
4444: 
HIGH_ONE_PAIR 0.19281897
HIGH_CARD 0.041950107
STRAIGHT_1 0.040659335
LOW_ONE_PAIR 0.08525346
2222: 
HIGH_TWO_PAIR 0.21435362
FLUSH_1 0.24671772
THREE_OF_A_KIND 0.21517175
6666: 
HIGH_ONE_PAIR 0.22611813
HIGH_CARD 0.16853866
LOW_ONE_PAIR 0.16588742
THREE_OF_A_KIND 0.056631353
5555: 
HIGH_ONE_PAIR 0.3046223
LOW_ONE_PAIR 0.17299598
STRAIGHT_1 0.0
HIGH_CARD 0.15360446
LOW_TWO_PAIR 0.0
To server: call 

turn
HEARTS 10 

inquire
7777 3560 2000 40 check 
4444 700 2000 40 check 
2222 8980 2000 40 check 
6666 3060 2000 40 check 
5555 2280 2000 40 check 
8888 1180 2000 40 check 
total pot: 240 

7777: 
LOW_TWO_PAIR 0.0
STRAIGHT_1 0.0
LOW_ONE_PAIR 0.0
HIGH_ONE_PAIR 0.0
HIGH_TWO_PAIR 0.0
4444: 
HIGH_TWO_PAIR 0.0
STRAIGHT_1 0.0
FLUSH 0.0
LOW_TWO_PAIR 0.0
HIGH_CARD 0.0
LOW_ONE_PAIR 0.0
HIGH_ONE_PAIR 0.0
2222: 
FLUSH_1 0.0
FULL_HOUSE_UP 0.0
HIGH_TWO_PAIR 0.0
6666: 
HIGH_TWO_PAIR 0.0
FLUSH 0.0
LOW_TWO_PAIR 0.0
THREE_OF_A_KIND 0.0
HIGH_ONE_PAIR 0.0
HIGH_CARD 0.0
LOW_ONE_PAIR 0.0
5555: 
HIGH_ONE_PAIR 0.0
HIGH_CARD 0.0
STRAIGHT_1 0.0
HIGH_TWO_PAIR 0.0
LOW_ONE_PAIR 0.0
LOW_TWO_PAIR 0.0
To server: call 

river
SPADES 10 

inquire
7777 1260 2000 2340 raise 
4444 0 2000 740 all_in 
2222 8980 2000 40 check 
6666 3060 2000 40 check 
5555 2280 2000 40 check 
8888 1180 2000 40 check 
total pot: 3240 

7777: 
FULL_HOUSE_UP 0.65
4444: 
LOW_ONE_PAIR 0.0
LOW_TWO_PAIR 0.0
HIGH_TWO_PAIR 0.0
HIGH_ONE_PAIR 0.0
FLUSH 0.0
2222: 
LOW_ONE_PAIR 0.0
HIGH_ONE_PAIR 0.0
THREE_OF_A_KIND 0.0
6666: 
HIGH_ONE_PAIR 0.0
THREE_OF_A_KIND 0.0
FLUSH 0.0
LOW_TWO_PAIR 0.0
LOW_ONE_PAIR 0.0
HIGH_TWO_PAIR 0.0
5555: 
LOW_TWO_PAIR 0.0
HIGH_ONE_PAIR 0.0
FLUSH 0.0
HIGH_TWO_PAIR 0.0
LOW_ONE_PAIR 0.0
To server: fold 

notify
7777 1260 2000 2340 raise 
4444 0 2000 740 all_in 
2222 6680 2000 2340 call 
6666 760 2000 2340 call 
5555 2280 2000 40 fold 
8888 1180 2000 40 fold 
total pot: 7840 

showdown
common/ 
HEARTS Q 
HEARTS 8 
CLUBS 8 
HEARTS 10 
SPADES 10 
/common 
3: 2222 CLUBS 4 HEARTS 6 TWO_PAIR 
2: 4444 HEARTS 9 DIAMONDS 8 FULL_HOUSE 
2: 7777 SPADES 8 SPADES 3 FULL_HOUSE 
1: 6666 SPADES 7 DIAMONDS 10 FULL_HOUSE 

pot-win
6666: 7840 

seat
button: 2222 6680 2000 
small blind: 4444 2000 0 
big blind: 7777 1260 2000 
8888 1180 2000 
5555 2280 2000 
6666 8600 2000 

blind
4444: 20 
7777: 40 

hold
CLUBS 8 
SPADES A 

inquire
7777 1220 2000 40 blind 
4444 1980 0 20 blind 
total pot: 60 

To server: call 

notify
7777 1220 2000 40 check 
4444 1960 0 40 call 
2222 6640 2000 40 call 
6666 8560 2000 40 call 
5555 2240 2000 40 call 
8888 1140 2000 40 call 
total pot: 240 

flop
HEARTS 6 
DIAMONDS 2 
SPADES 4 

inquire
7777 1220 2000 40 check 
4444 1960 0 40 check 
2222 6640 2000 40 call 
6666 8560 2000 40 call 
5555 2240 2000 40 call 
8888 1140 2000 40 call 
total pot: 240 

7777: 
LOW_ONE_PAIR 0.038888894
THREE_OF_A_KIND 0.0
HIGH_ONE_PAIR 0.038888883
HIGH_TWO_PAIR 0.01852941
STRAIGHT_1 0.0
HIGH_CARD 0.02072369
4444: 
THREE_OF_A_KIND 0.0
HIGH_ONE_PAIR 0.14620177
STRAIGHT_1 0.102564104
HIGH_CARD 0.10582011
LOW_ONE_PAIR 0.21505377
2222: 
HIGH_TWO_PAIR 0.15874523
THREE_OF_A_KIND 0.15935114
FLUSH_1 0.18271333
6666: 
THREE_OF_A_KIND 0.020801034
LOW_ONE_PAIR 0.18807738
HIGH_CARD 0.17473598
HIGH_ONE_PAIR 0.18754649
5555: 
HIGH_ONE_PAIR 0.29937017
LOW_ONE_PAIR 0.1700133
STRAIGHT_1 0.0
HIGH_CARD 0.15095611
LOW_TWO_PAIR 0.0
To server: call 

turn
HEARTS 2 

inquire
7777 1220 2000 40 check 
4444 1960 0 40 check 
2222 6640 2000 40 check 
6666 8560 2000 40 check 
5555 2240 2000 40 check 
8888 1140 2000 40 check 
total pot: 240 

7777: 
STRAIGHT_1 0.0
LOW_TWO_PAIR 0.0
HIGH_ONE_PAIR 0.0
LOW_ONE_PAIR 0.0
HIGH_TWO_PAIR 0.0
THREE_OF_A_KIND 0.0
4444: 
HIGH_TWO_PAIR 0.0
LOW_TWO_PAIR 0.0
HIGH_ONE_PAIR 0.0
THREE_OF_A_KIND 0.0
HIGH_CARD 0.0
STRAIGHT_1 0.0
LOW_ONE_PAIR 0.0
FLUSH 0.0
2222: 
HIGH_TWO_PAIR 0.0
FLUSH_1 0.0
FULL_HOUSE_UP 0.0
6666: 
THREE_OF_A_KIND 0.0
LOW_TWO_PAIR 0.0
HIGH_CARD 0.0
FLUSH 0.0
HIGH_TWO_PAIR 0.0
HIGH_ONE_PAIR 0.0
LOW_ONE_PAIR 0.0
5555: 
HIGH_ONE_PAIR 0.0
HIGH_TWO_PAIR 0.0
LOW_ONE_PAIR 0.0
HIGH_CARD 0.0
LOW_TWO_PAIR 0.0
STRAIGHT_1 0.0
To server: call 

river
SPADES Q 

inquire
7777 1220 2000 40 check 
4444 1960 0 40 check 
2222 6640 2000 40 check 
6666 8560 2000 40 check 
5555 2240 2000 40 check 
8888 1140 2000 40 check 
total pot: 240 

7777: 
LOW_ONE_PAIR 0.0
LOW_TWO_PAIR 0.0
HIGH_TWO_PAIR 0.0
HIGH_ONE_PAIR 0.0
STRAIGHT 0.0
THREE_OF_A_KIND 0.0
4444: 
LOW_ONE_PAIR 0.0
LOW_TWO_PAIR 0.0
FLUSH 0.0
HIGH_ONE_PAIR 0.0
HIGH_TWO_PAIR 0.0
2222: 
THREE_OF_A_KIND 0.0
LOW_ONE_PAIR 0.0
HIGH_ONE_PAIR 0.0
6666: 
HIGH_TWO_PAIR 0.0
FLUSH 0.0
LOW_ONE_PAIR 0.0
HIGH_ONE_PAIR 0.0
LOW_TWO_PAIR 0.0
THREE_OF_A_KIND 0.0
5555: 
LOW_ONE_PAIR 0.0
FLUSH 0.0
HIGH_ONE_PAIR 0.0
LOW_TWO_PAIR 0.0
HIGH_TWO_PAIR 0.0
To server: call 

showdown
common/ 
HEARTS 6 
DIAMONDS 2 
SPADES 4 
HEARTS 2 
SPADES Q 
/common 
5: 4444 SPADES 3 DIAMONDS J ONE_PAIR 
2: 7777 SPADES 5 SPADES 6 TWO_PAIR 
3: 8888 CLUBS 8 SPADES A ONE_PAIR 
4: 5555 SPADES K HEARTS 3 ONE_PAIR 
1: 6666 CLUBS A CLUBS 2 THREE_OF_A_KIND 
6: 2222 SPADES 8 SPADES 10 ONE_PAIR 

pot-win
6666: 240 

seat
button: 4444 1960 0 
small blind: 7777 1220 2000 
big blind: 8888 1140 2000 
5555 2240 2000 
6666 8800 2000 
2222 6640 2000 

blind
7777: 20 
8888: 40 

hold
CLUBS 6 
CLUBS 9 

inquire
7777 1180 2000 40 call 
4444 1920 0 40 call 
2222 6600 2000 40 call 
6666 8760 2000 40 call 
5555 2200 2000 40 call 
8888 1100 2000 40 blind 
total pot: 240 

7777: 
SMALL_FLUSH 0.049596366
HIGH_SINGLE 0.0
BIG_PAIR 0.07242904
SMALL_PAIR 0.031234
LOW_SINGLE 0.33805186
4444: 
SMALL_FLUSH 0.13377063
BIG_FLUSH 0.016206482
HIGH_SINGLE 0.031812724
LOW_SINGLE 0.3983802
2222: 
SMALL_FLUSH 0.47219992
SMALL_PAIR 0.070130974
6666: 
SMALL_FLUSH 0.15771629
BIG_FLUSH 0.0098863635
BIG_PAIR 0.018522728
HIGH_SINGLE 0.017840907
LOW_SINGLE 0.24817356
5555: 
LOW_SINGLE 0.58297694
HIGH_SINGLE 0.12754159
SMALL_FLUSH 0.12782423
BIG_PAIR 0.0875369
To server: call 

flop
HEARTS J 
HEARTS Q 
CLUBS A 

inquire
7777 1180 2000 40 check 
4444 1920 0 40 call 
2222 6600 2000 40 call 
6666 8760 2000 40 call 
5555 2200 2000 40 call 
8888 1100 2000 40 check 
total pot: 240 

7777: 
LOW_ONE_PAIR 0.035861246
HIGH_CARD 0.019110283
STRAIGHT_1 0.0
HIGH_ONE_PAIR 0.035861254
THREE_OF_A_KIND 0.0
HIGH_TWO_PAIR 0.017086836
4444: 
LOW_ONE_PAIR 0.19758064
HIGH_ONE_PAIR 0.13986139
HIGH_CARD 0.097222224
STRAIGHT_1 0.09423077
THREE_OF_A_KIND 0.0
2222: 
FLUSH_1 0.18161926
THREE_OF_A_KIND 0.15839696
HIGH_TWO_PAIR 0.15779468
6666: 
HIGH_CARD 0.16177706
THREE_OF_A_KIND 0.01925837
HIGH_ONE_PAIR 0.17363751
LOW_ONE_PAIR 0.21654977
5555: 
STRAIGHT_1 0.04761905
LOW_ONE_PAIR 0.15907677
LOW_TWO_PAIR 0.0
HIGH_ONE_PAIR 0.28011242
HIGH_CARD 0.14124548
To server: call 

turn
DIAMONDS 10 

inquire
7777 1180 2000 40 check 
4444 1920 0 40 check 
2222 6600 2000 40 check 
6666 8760 2000 40 check 
5555 2200 2000 40 check 
8888 1100 2000 40 check 
total pot: 240 

7777: 
THREE_OF_A_KIND 0.0
HIGH_ONE_PAIR 0.0
LOW_TWO_PAIR 0.0
STRAIGHT_1 0.0
LOW_ONE_PAIR 0.0
HIGH_TWO_PAIR 0.0
4444: 
LOW_ONE_PAIR 0.0
LOW_TWO_PAIR 0.0
STRAIGHT_1 0.0
HIGH_ONE_PAIR 0.0
THREE_OF_A_KIND 0.0
HIGH_CARD 0.0
FLUSH 0.0
HIGH_TWO_PAIR 0.0
2222: 
FULL_HOUSE_UP 0.0
HIGH_TWO_PAIR 0.0
FLUSH_1 0.0
6666: 
THREE_OF_A_KIND 0.0
LOW_TWO_PAIR 0.0
LOW_ONE_PAIR 0.0
HIGH_TWO_PAIR 0.0
FLUSH 0.0
HIGH_CARD 0.0
HIGH_ONE_PAIR 0.0
5555: 
LOW_ONE_PAIR 0.0
STRAIGHT_1 0.0
LOW_TWO_PAIR 0.0
HIGH_ONE_PAIR 0.0
HIGH_CARD 0.0
HIGH_TWO_PAIR 0.0
To server: call 

river
CLUBS 2 

inquire
7777 1180 2000 40 check 
4444 1920 0 40 check 
2222 6600 2000 40 check 
6666 8760 2000 40 check 
5555 2200 2000 40 check 
8888 1100 2000 40 check 
total pot: 240 

7777: 
LOW_ONE_PAIR 0.0
THREE_OF_A_KIND 0.0
HIGH_TWO_PAIR 0.0
LOW_TWO_PAIR 0.0
STRAIGHT 0.0
HIGH_ONE_PAIR 0.0
4444: 
FLUSH 0.0
LOW_ONE_PAIR 0.0
HIGH_TWO_PAIR 0.0
HIGH_ONE_PAIR 0.0
LOW_TWO_PAIR 0.0
2222: 
HIGH_ONE_PAIR 0.0
THREE_OF_A_KIND 0.0
LOW_ONE_PAIR 0.0
6666: 
LOW_ONE_PAIR 0.0
HIGH_TWO_PAIR 0.0
FLUSH 0.0
LOW_TWO_PAIR 0.0
HIGH_ONE_PAIR 0.0
THREE_OF_A_KIND 0.0
5555: 
FLUSH 0.0
LOW_ONE_PAIR 0.0
HIGH_ONE_PAIR 0.0
HIGH_TWO_PAIR 0.0
LOW_TWO_PAIR 0.0
To server: fold 

showdown
common/ 
HEARTS J 
HEARTS Q 
CLUBS A 
DIAMONDS 10 
CLUBS 2 
/common 
1: 7777 DIAMONDS K HEARTS 4 STRAIGHT 
3: 5555 SPADES J HEARTS 9 ONE_PAIR 
4: 2222 CLUBS 8 CLUBS 7 HIGH_CARD 
2: 4444 CLUBS Q SPADES Q THREE_OF_A_KIND 

pot-win
7777: 240 

seat
button: 7777 1420 2000 
small blind: 8888 1100 2000 
big blind: 5555 2200 2000 
6666 8760 2000 
2222 6600 2000 
4444 1920 0 

blind
8888: 20 
5555: 40 

hold
SPADES 9 
HEARTS 2 

inquire
7777 1380 2000 40 call 
4444 1880 0 40 call 
2222 6560 2000 40 call 
6666 8720 2000 40 call 
5555 2160 2000 40 blind 
8888 1080 2000 20 blind 
total pot: 220 

7777: 
SMALL_FLUSH 0.055102967
HIGH_SINGLE 0.0
BIG_PAIR 0.08047071
SMALL_PAIR 0.034701858
LOW_SINGLE 0.42849123
4444: 
SMALL_FLUSH 0.13655752
HIGH_SINGLE 0.032475494
BIG_PAIR 0.057623047
LOW_SINGLE 0.40667978
2222: 
SMALL_PAIR 0.06273764
SMALL_FLUSH 0.5218173
6666: 
HIGH_SINGLE 0.017922372
BIG_PAIR 0.018607307
LOW_SINGLE 0.2493068
BIG_FLUSH 0.009931505
SMALL_FLUSH 0.15843645
To server: fold 

flop
DIAMONDS K 
SPADES 8 
HEARTS 5 

notify
7777 1380 2000 40 call 
4444 1880 0 40 call 
2222 6560 2000 40 call 
6666 8720 2000 40 call 
5555 2160 2000 40 check 
8888 1080 2000 20 fold 
total pot: 220 

turn
CLUBS 4 

notify
7777 1380 2000 40 check 
4444 1880 0 40 check 
2222 6560 2000 40 check 
6666 8720 2000 40 check 
5555 2160 2000 40 check 
8888 1080 2000 20 fold 
total pot: 220 

river
CLUBS Q 

notify
7777 1380 2000 40 check 
4444 1880 0 40 check 
2222 6560 2000 40 check 
6666 8720 2000 40 check 
5555 2160 2000 40 check 
8888 1080 2000 20 fold 
total pot: 220 

showdown
common/ 
DIAMONDS K 
SPADES 8 
HEARTS 5 
CLUBS 4 
CLUBS Q 
/common 
3: 6666 HEARTS 4 DIAMONDS 2 ONE_PAIR 
1: 2222 CLUBS 7 SPADES Q ONE_PAIR 
2: 7777 CLUBS 6 HEARTS 8 ONE_PAIR 

pot-win
2222: 220 

seat
button: 8888 1080 2000 
small blind: 5555 2160 2000 
big blind: 6666 8720 2000 
2222 6780 2000 
4444 1880 0 
7777 1380 2000 

blind
5555: 20 
6666: 40 

hold
SPADES J 
HEARTS J 

inquire
7777 1340 2000 40 call 
4444 1880 0 0 fold 
2222 6740 2000 40 call 
6666 8680 2000 40 blind 
5555 2140 2000 20 blind 
total pot: 140 

7777: 
SMALL_PAIR 0.032258064
SMALL_FLUSH 0.05122247
LOW_SINGLE 0.4405693
HIGH_SINGLE 0.0
BIG_PAIR 0.074803755
2222: 
SMALL_FLUSH 0.5360487
SMALL_PAIR 0.06444867
To server: call 

notify
7777 1340 2000 40 call 
4444 1880 0 0 fold 
2222 6740 2000 40 call 
6666 8680 2000 40 check 
5555 2120 2000 40 call 
8888 1040 2000 40 call 
total pot: 200 

flop
CLUBS 10 
DIAMONDS 9 
HEARTS 6 

inquire
7777 1340 2000 40 check 
4444 1880 0 0 fold 
2222 6740 2000 40 check 
6666 8680 2000 40 check 
5555 2120 2000 40 check 
8888 1040 2000 40 call 
total pot: 200 

7777: 
HIGH_CARD 0.01973685
STRAIGHT_1 0.0
LOW_ONE_PAIR 0.08051529
THREE_OF_A_KIND 0.0
HIGH_TWO_PAIR 0.01764706
HIGH_ONE_PAIR 0.03703703
2222: 
HIGH_TWO_PAIR 0.16112167
FLUSH_1 0.18544859
THREE_OF_A_KIND 0.16173664
6666: 
HIGH_ONE_PAIR 0.16646901
HIGH_CARD 0.19868846
THREE_OF_A_KIND 0.018463302
LOW_ONE_PAIR 0.20760965
5555: 
HIGH_ONE_PAIR 0.30245885
LOW_ONE_PAIR 0.14642294
STRAIGHT_1 0.04383117
HIGH_CARD 0.13001004
LOW_TWO_PAIR 0.0
To server: call 

turn
CLUBS 6 

inquire
7777 1340 2000 40 check 
4444 1880 0 0 fold 
2222 6740 2000 40 check 
6666 8680 2000 40 check 
5555 2120 2000 40 check 
8888 1040 2000 40 check 
total pot: 200 

7777: 
HIGH_TWO_PAIR 0.0
THREE_OF_A_KIND 0.0
HIGH_ONE_PAIR 0.0
LOW_TWO_PAIR 0.0
LOW_ONE_PAIR 0.0
STRAIGHT 0.0
STRAIGHT_1 0.0
2222: 
FLUSH_1 0.0
HIGH_TWO_PAIR 0.0
FULL_HOUSE_UP 0.0
6666: 
LOW_TWO_PAIR 0.0
HIGH_CARD 0.0
FLUSH 0.0
THREE_OF_A_KIND 0.0
LOW_ONE_PAIR 0.0
HIGH_TWO_PAIR 0.0
HIGH_ONE_PAIR 0.0
5555: 
STRAIGHT_1 0.0
HIGH_ONE_PAIR 0.0
HIGH_CARD 0.0
HIGH_TWO_PAIR 0.0
LOW_ONE_PAIR 0.0
LOW_TWO_PAIR 0.0
To server: call 

river
HEARTS 10 

inquire
7777 0 2000 1380 all_in 
4444 1880 0 0 fold 
2222 6740 2000 40 check 
6666 8680 2000 40 check 
5555 2120 2000 40 check 
8888 1040 2000 40 check 
total pot: 1540 

7777: 
FULL_HOUSE_UP 0.82865167
2222: 
LOW_ONE_PAIR 0.0
THREE_OF_A_KIND 0.0
HIGH_ONE_PAIR 0.0
6666: 
THREE_OF_A_KIND 0.0
HIGH_TWO_PAIR 0.0
HIGH_ONE_PAIR 0.0
LOW_ONE_PAIR 0.0
FLUSH 0.0
LOW_TWO_PAIR 0.0
5555: 
LOW_TWO_PAIR 0.0
HIGH_TWO_PAIR 0.0
LOW_ONE_PAIR 0.0
FLUSH 0.0
HIGH_ONE_PAIR 0.0
To server: fold 

notify
7777 0 2000 1380 all_in 
4444 1880 0 0 fold 
2222 5400 2000 1380 call 
6666 8680 2000 40 fold 
5555 2120 2000 40 fold 
8888 1040 2000 40 fold 
total pot: 2880 

showdown
common/ 
CLUBS 10 
DIAMONDS 9 
HEARTS 6 
CLUBS 6 
HEARTS 10 
/common 
2: 2222 HEARTS 2 CLUBS 3 TWO_PAIR 
1: 7777 SPADES 10 HEARTS 8 FULL_HOUSE 

pot-win
7777: 2880 

seat
button: 5555 2120 2000 
small blind: 6666 8680 2000 
big blind: 2222 5400 2000 
4444 1880 0 
7777 2880 2000 
8888 1040 2000 

blind
6666: 20 
2222: 40 

hold
DIAMONDS 3 
DIAMONDS 6 

inquire
7777 2880 2000 0 fold 
4444 1840 0 40 call 
2222 5360 2000 40 blind 
6666 8660 2000 20 blind 
total pot: 100 

4444: 
LOW_SINGLE 0.41533253
HIGH_SINGLE 0.033166457
SMALL_FLUSH 0.139463
BIG_PAIR 0.05642257
To server: call 

notify
7777 2880 2000 0 fold 
4444 1840 0 40 call 
2222 5360 2000 40 check 
6666 8640 2000 40 call 
5555 2080 2000 40 call 
8888 1000 2000 40 call 
total pot: 200 

flop
CLUBS 3 
DIAMONDS 8 
DIAMONDS 4 

inquire
7777 2880 2000 0 fold 
4444 1840 0 40 check 
2222 5360 2000 40 check 
6666 8640 2000 40 check 
5555 2080 2000 40 call 
8888 1000 2000 40 call 
total pot: 200 

4444: 
HIGH_ONE_PAIR 0.1372357
HIGH_CARD 0.08776844
STRAIGHT_1 0.085067876
LOW_ONE_PAIR 0.17836812
THREE_OF_A_KIND 0.057598043
2222: 
FLUSH_1 0.14770243
HIGH_TWO_PAIR 0.128327
THREE_OF_A_KIND 0.1288168
6666: 
HIGH_ONE_PAIR 0.16723613
LOW_ONE_PAIR 0.20856638
THREE_OF_A_KIND 0.018548388
HIGH_CARD 0.1996041
5555: 
STRAIGHT_1 0.043019485
HIGH_CARD 0.12760244
LOW_ONE_PAIR 0.14371139
HIGH_ONE_PAIR 0.29685777
LOW_TWO_PAIR 0.0
To server: call 

turn
HEARTS 9 

inquire
7777 2880 2000 0 fold 
4444 1840 0 40 check 
2222 5360 2000 40 check 
6666 8640 2000 40 check 
5555 2080 2000 40 check 
8888 1000 2000 40 check 
total pot: 200 

4444: 
LOW_ONE_PAIR 0.0
LOW_TWO_PAIR 0.0
STRAIGHT_1 0.0
FLUSH 0.0
HIGH_ONE_PAIR 0.0
HIGH_TWO_PAIR 0.0
THREE_OF_A_KIND 0.0
HIGH_CARD 0.0
2222: 
FULL_HOUSE_UP 0.0
HIGH_TWO_PAIR 0.0
FLUSH_1 0.0
6666: 
HIGH_CARD 0.0
HIGH_TWO_PAIR 0.0
LOW_ONE_PAIR 0.0
FLUSH 0.0
HIGH_ONE_PAIR 0.0
LOW_TWO_PAIR 0.0
THREE_OF_A_KIND 0.0
5555: 
HIGH_TWO_PAIR 0.0
LOW_TWO_PAIR 0.0
HIGH_CARD 0.0
LOW_ONE_PAIR 0.0
STRAIGHT_1 0.0
HIGH_ONE_PAIR 0.0
To server: call 

river
CLUBS 8 

inquire
7777 2880 2000 0 fold 
4444 1840 0 40 check 
2222 5360 2000 40 check 
6666 8640 2000 40 check 
5555 2080 2000 40 check 
8888 1000 2000 40 check 
total pot: 200 

4444: 
HIGH_ONE_PAIR 0.0
FLUSH 0.0
THREE_OF_A_KIND 0.0
LOW_TWO_PAIR 0.0
LOW_ONE_PAIR 0.0
HIGH_TWO_PAIR 0.0
2222: 
HIGH_ONE_PAIR 0.0
LOW_ONE_PAIR 0.0
THREE_OF_A_KIND 0.0
6666: 
LOW_TWO_PAIR 0.0
FLUSH 0.0
HIGH_ONE_PAIR 0.0
LOW_ONE_PAIR 0.0
HIGH_TWO_PAIR 0.0
THREE_OF_A_KIND 0.0
5555: 
LOW_TWO_PAIR 0.0
FLUSH 0.0
LOW_ONE_PAIR 0.0
HIGH_TWO_PAIR 0.0
HIGH_ONE_PAIR 0.0
To server: call 

showdown
common/ 
CLUBS 3 
DIAMONDS 8 
DIAMONDS 4 
HEARTS 9 
CLUBS 8 
/common 
1: 6666 CLUBS 10 CLUBS 9 TWO_PAIR 
2: 2222 SPADES 5 DIAMONDS 9 TWO_PAIR 
5: 4444 SPADES J HEARTS Q ONE_PAIR 
3: 8888 DIAMONDS 3 DIAMONDS 6 TWO_PAIR 
4: 5555 CLUBS J HEARTS K ONE_PAIR 

pot-win
6666: 200 

seat
button: 6666 8840 2000 
small blind: 2222 5360 2000 
big blind: 4444 1840 0 
7777 2880 2000 
8888 1000 2000 
5555 2080 2000 

blind
2222: 20 
4444: 40 

hold
HEARTS 8 
CLUBS 9 

inquire
7777 2840 2000 40 call 
4444 1800 0 40 blind 
2222 5340 2000 20 blind 
total pot: 100 

7777: 
BIG_PAIR 0.046417754
HIGH_SINGLE 0.0
LOW_SINGLE 0.4590917
SMALL_PAIR 0.026909724
SMALL_FLUSH 0.10244494
To server: call 

notify
7777 2840 2000 40 call 
4444 1800 0 40 check 
2222 5320 2000 40 call 
6666 8800 2000 40 call 
5555 2040 2000 40 call 
8888 960 2000 40 call 
total pot: 240 

flop
HEARTS J 
CLUBS J 
SPADES 5 

inquire
7777 2840 2000 40 check 
4444 1800 0 40 check 
2222 5320 2000 40 check 
6666 8800 2000 40 call 
5555 2040 2000 40 call 
8888 960 2000 40 call 
total pot: 240 

7777: 
HIGH_CARD 0.039473683
THREE_OF_A_KIND 0.0
LOW_ONE_PAIR 0.16103059
HIGH_ONE_PAIR 0.07407407
STRAIGHT_1 0.0
HIGH_TWO_PAIR 0.03529412
4444: 
STRAIGHT_1 0.07863249
THREE_OF_A_KIND 0.053240743
HIGH_CARD 0.08112875
LOW_ONE_PAIR 0.16487455
HIGH_ONE_PAIR 0.13242915
2222: 
FLUSH_1 0.14660832
HIGH_TWO_PAIR 0.12737644
THREE_OF_A_KIND 0.1278626
6666: 
HIGH_ONE_PAIR 0.15638976
HIGH_CARD 0.25406286
THREE_OF_A_KIND 0.017345397
LOW_ONE_PAIR 0.19503945
5555: 
HIGH_ONE_PAIR 0.27859333
HIGH_CARD 0.16322985
STRAIGHT_1 0.040372673
LOW_ONE_PAIR 0.13486943
LOW_TWO_PAIR 0.0
To server: call 

turn
SPADES 4 

inquire
7777 2840 2000 40 check 
4444 1800 0 40 check 
2222 5320 2000 40 check 
6666 8800 2000 40 check 
5555 2040 2000 40 check 
8888 960 2000 40 check 
total pot: 240 

7777: 
HIGH_TWO_PAIR 0.0
LOW_TWO_PAIR 0.0
LOW_ONE_PAIR 0.0
HIGH_ONE_PAIR 0.0
THREE_OF_A_KIND 0.0
STRAIGHT 0.0
STRAIGHT_1 0.0
4444: 
LOW_ONE_PAIR 0.0
STRAIGHT_1 0.0
HIGH_ONE_PAIR 0.0
HIGH_TWO_PAIR 0.0
THREE_OF_A_KIND 0.0
HIGH_CARD 0.0
FLUSH 0.0
LOW_TWO_PAIR 0.0
2222: 
FLUSH_1 0.0
FULL_HOUSE_UP 0.0
HIGH_TWO_PAIR 0.0
6666: 
THREE_OF_A_KIND 0.0
HIGH_ONE_PAIR 0.0
HIGH_TWO_PAIR 0.0
LOW_TWO_PAIR 0.0
FLUSH 0.0
HIGH_CARD 0.0
LOW_ONE_PAIR 0.0
5555: 
STRAIGHT_1 0.0
HIGH_CARD 0.0
LOW_TWO_PAIR 0.0
HIGH_TWO_PAIR 0.0
HIGH_ONE_PAIR 0.0
LOW_ONE_PAIR 0.0
To server: call 

river
HEARTS Q 

inquire
7777 2840 2000 40 check 
4444 1800 0 40 check 
2222 5320 2000 40 check 
6666 8800 2000 40 check 
5555 2040 2000 40 check 
8888 960 2000 40 check 
total pot: 240 

7777: 
LOW_TWO_PAIR 0.0
LOW_ONE_PAIR 0.0
HIGH_ONE_PAIR 0.0
HIGH_TWO_PAIR 0.0
THREE_OF_A_KIND 0.0
STRAIGHT 0.0
4444: 
LOW_ONE_PAIR 0.0
THREE_OF_A_KIND 0.0
LOW_TWO_PAIR 0.0
HIGH_ONE_PAIR 0.0
FLUSH 0.0
HIGH_TWO_PAIR 0.0
2222: 
LOW_ONE_PAIR 0.0
THREE_OF_A_KIND 0.0
HIGH_ONE_PAIR 0.0
6666: 
HIGH_ONE_PAIR 0.0
LOW_ONE_PAIR 0.0
LOW_TWO_PAIR 0.0
THREE_OF_A_KIND 0.0
FLUSH 0.0
HIGH_TWO_PAIR 0.0
5555: 
HIGH_TWO_PAIR 0.0
HIGH_ONE_PAIR 0.0
LOW_ONE_PAIR 0.0
FLUSH 0.0
LOW_TWO_PAIR 0.0
To server: call 

showdown
common/ 
HEARTS J 
CLUBS J 
SPADES 5 
SPADES 4 
HEARTS Q 
/common 
2: 2222 HEARTS 7 SPADES 7 TWO_PAIR 
3: 4444 DIAMONDS 6 CLUBS 5 TWO_PAIR 
6: 7777 SPADES 8 DIAMONDS 7 ONE_PAIR 
5: 8888 HEARTS 8 CLUBS 9 ONE_PAIR 
1: 5555 DIAMONDS 10 HEARTS 10 TWO_PAIR 
4: 6666 CLUBS 8 CLUBS K ONE_PAIR 

pot-win
5555: 240 

seat
button: 2222 5320 2000 
small blind: 4444 1800 0 
big blind: 7777 2840 2000 
8888 960 2000 
5555 2280 2000 
6666 8800 2000 

blind
4444: 20 
7777: 40 

hold
HEARTS 3 
HEARTS A 

inquire
7777 2800 2000 40 blind 
4444 1780 0 20 blind 
total pot: 60 

To server: call 

notify
7777 2800 2000 40 check 
4444 1760 0 40 call 
2222 5280 2000 40 call 
6666 8760 2000 40 call 
5555 2240 2000 40 call 
8888 920 2000 40 call 
total pot: 240 

flop
DIAMONDS 10 
HEARTS 4 
HEARTS Q 

inquire
7777 2800 2000 40 check 
4444 1760 0 40 check 
2222 5280 2000 40 call 
6666 8760 2000 40 call 
5555 2240 2000 40 call 
8888 920 2000 40 call 
total pot: 240 

7777: 
HIGH_ONE_PAIR 0.07012346
LOW_ONE_PAIR 0.15244228
THREE_OF_A_KIND 0.0
HIGH_TWO_PAIR 0.033411764
STRAIGHT_1 0.0
HIGH_CARD 0.03736843
4444: 
LOW_ONE_PAIR 0.15280135
STRAIGHT_1 0.072874494
HIGH_TWO_PAIR 0.0
HIGH_CARD 0.07518798
THREE_OF_A_KIND 0.049342107
HIGH_ONE_PAIR 0.12824719
2222: 
FLUSH_1 0.11641137
THREE_OF_A_KIND 0.101526715
HIGH_TWO_PAIR 0.10114066
6666: 
HIGH_CARD 0.24361683
THREE_OF_A_KIND 0.01663223
LOW_ONE_PAIR 0.18702026
HIGH_ONE_PAIR 0.18697682
5555: 
HIGH_TWO_PAIR 0.0372807
LOW_ONE_PAIR 0.14167775
LOW_TWO_PAIR 0.0
HIGH_CARD 0.17146982
HIGH_ONE_PAIR 0.29265693
STRAIGHT_1 0.042410716
To server: call 

turn
DIAMONDS K 

inquire
7777 2800 2000 40 check 
4444 1760 0 40 check 
2222 5280 2000 40 check 
6666 8760 2000 40 check 
5555 2240 2000 40 check 
8888 920 2000 40 check 
total pot: 240 

7777: 
LOW_TWO_PAIR 0.0
STRAIGHT_1 0.0
LOW_ONE_PAIR 0.0
STRAIGHT 0.0
THREE_OF_A_KIND 0.0
HIGH_ONE_PAIR 0.0
HIGH_TWO_PAIR 0.0
4444: 
THREE_OF_A_KIND 0.0
HIGH_ONE_PAIR 0.0
HIGH_TWO_PAIR 0.0
LOW_TWO_PAIR 0.0
LOW_ONE_PAIR 0.0
HIGH_CARD 0.0
STRAIGHT_1 0.0
FLUSH 0.0
2222: 
HIGH_TWO_PAIR 0.0
FLUSH_1 0.0
FULL_HOUSE_UP 0.0
6666: 
HIGH_CARD 0.0
LOW_ONE_PAIR 0.0
HIGH_TWO_PAIR 0.0
THREE_OF_A_KIND 0.0
LOW_TWO_PAIR 0.0
HIGH_ONE_PAIR 0.0
FLUSH 0.0
5555: 
LOW_ONE_PAIR 0.0
LOW_TWO_PAIR 0.0
HIGH_ONE_PAIR 0.0
HIGH_CARD 0.0
HIGH_TWO_PAIR 0.0
STRAIGHT_1 0.0
To server: call 

river
HEARTS 6 

inquire
7777 2800 2000 40 check 
4444 1760 0 40 check 
2222 5280 2000 40 check 
6666 8760 2000 40 check 
5555 2240 2000 40 check 
8888 920 2000 40 check 
total pot: 240 

7777: 
LOW_ONE_PAIR 0.0
HIGH_TWO_PAIR 0.0
THREE_OF_A_KIND 0.0
LOW_TWO_PAIR 0.0
STRAIGHT 0.0
HIGH_ONE_PAIR 0.0
4444: 
HIGH_ONE_PAIR 0.0
THREE_OF_A_KIND 0.0
LOW_TWO_PAIR 0.0
LOW_ONE_PAIR 0.0
HIGH_TWO_PAIR 0.0
FLUSH 0.0
2222: 
THREE_OF_A_KIND 0.0
LOW_ONE_PAIR 0.0
HIGH_ONE_PAIR 0.0
6666: 
LOW_TWO_PAIR 0.0
FLUSH 0.0
HIGH_ONE_PAIR 0.0
THREE_OF_A_KIND 0.0
LOW_ONE_PAIR 0.0
HIGH_TWO_PAIR 0.0
5555: 
HIGH_ONE_PAIR 0.0
LOW_ONE_PAIR 0.0
HIGH_TWO_PAIR 0.0
LOW_TWO_PAIR 0.0
FLUSH 0.0
To server: call 

showdown
common/ 
DIAMONDS 10 
HEARTS 4 
HEARTS Q 
DIAMONDS K 
HEARTS 6 
/common 
2: 4444 SPADES 3 SPADES Q ONE_PAIR 
3: 7777 HEARTS 9 CLUBS 10 ONE_PAIR 
1: 8888 HEARTS 3 HEARTS A FLUSH 
4: 5555 HEARTS 5 CLUBS 5 ONE_PAIR 
5: 6666 CLUBS 4 DIAMONDS 3 ONE_PAIR 
6: 2222 SPADES 9 DIAMONDS 7 HIGH_CARD 

pot-win
8888: 240 

seat
button: 4444 1760 0 
small blind: 7777 2800 2000 
big blind: 8888 1160 2000 
5555 2240 2000 
6666 8760 2000 
2222 5280 2000 

blind
7777: 20 
8888: 40 

hold
SPADES 2 
HEARTS 5 

inquire
7777 2760 2000 40 call 
4444 1720 0 40 call 
2222 5240 2000 40 call 
6666 8720 2000 40 call 
5555 2200 2000 40 call 
8888 1120 2000 40 blind 
total pot: 240 

7777: 
BIG_PAIR 0.04407136
SMALL_PAIR 0.02554945
HIGH_SINGLE 0.0
LOW_SINGLE 0.5289029
SMALL_FLUSH 0.091937765
4444: 
BIG_PAIR 0.04275996
HIGH_SINGLE 0.073357485
LOW_SINGLE 0.42741323
SMALL_FLUSH 0.16317746
BIG_FLUSH 0.01461039
2222: 
SMALL_PAIR 0.13517961
SMALL_FLUSH 0.37950352
6666: 
BIG_PAIR 0.015506089
BIG_FLUSH 0.027576923
SMALL_FLUSH 0.16529073
HIGH_SINGLE 0.01493531
LOW_SINGLE 0.2681238
5555: 
BIG_PAIR 0.11067129
SMALL_PAIR 0.039298244
SMALL_FLUSH 0.10737235
LOW_SINGLE 0.52957404
HIGH_SINGLE 0.14489958
To server: call 

flop
SPADES J 
HEARTS Q 
SPADES 9 

inquire
7777 2760 2000 40 check 
4444 1720 0 40 call 
2222 5240 2000 40 call 
6666 8720 2000 40 call 
5555 2200 2000 40 call 
8888 1120 2000 40 check 
total pot: 240 

7777: 
THREE_OF_A_KIND 0.0
STRAIGHT_1 0.0
LOW_ONE_PAIR 0.14451464
HIGH_CARD 0.035425093
HIGH_ONE_PAIR 0.06647673
HIGH_TWO_PAIR 0.03167421
4444: 
HIGH_CARD 0.069841266
HIGH_TWO_PAIR 0.0
THREE_OF_A_KIND 0.04583333
HIGH_ONE_PAIR 0.19469342
STRAIGHT_1 0.0676923
LOW_ONE_PAIR 0.14193547
2222: 
HIGH_TWO_PAIR 0.100380205
THREE_OF_A_KIND 0.10076336
FLUSH_1 0.11553609
6666: 
LOW_ONE_PAIR 0.21645907
HIGH_CARD 0.23408885
THREE_OF_A_KIND 0.015981734
HIGH_ONE_PAIR 0.17966405
5555: 
HIGH_TWO_PAIR 0.03642857
STRAIGHT_1 0.04
LOW_ONE_PAIR 0.17362447
HIGH_CARD 0.16172312
HIGH_ONE_PAIR 0.27602172
LOW_TWO_PAIR 0.0
To server: call 

turn
SPADES 7 

inquire
7777 2760 2000 40 check 
4444 1720 0 40 check 
2222 5240 2000 40 check 
6666 8720 2000 40 check 
5555 2200 2000 40 check 
8888 1120 2000 40 check 
total pot: 240 

7777: 
HIGH_TWO_PAIR 0.0
THREE_OF_A_KIND 0.0
HIGH_ONE_PAIR 0.0
STRAIGHT_1 0.0
LOW_TWO_PAIR 0.0
STRAIGHT 0.0
LOW_ONE_PAIR 0.0
4444: 
HIGH_TWO_PAIR 0.0
LOW_TWO_PAIR 0.0
THREE_OF_A_KIND 0.0
FLUSH 0.0
HIGH_CARD 0.0
HIGH_ONE_PAIR 0.0
STRAIGHT_1 0.0
LOW_ONE_PAIR 0.0
2222: 
HIGH_TWO_PAIR 0.0
FLUSH_1 0.0
FULL_HOUSE_UP 0.0
6666: 
HIGH_ONE_PAIR 0.0
LOW_ONE_PAIR 0.0
HIGH_TWO_PAIR 0.0
HIGH_CARD 0.0
THREE_OF_A_KIND 0.0
LOW_TWO_PAIR 0.0
FLUSH 0.0
5555: 
LOW_ONE_PAIR 0.0
HIGH_TWO_PAIR 0.0
STRAIGHT_1 0.0
LOW_TWO_PAIR 0.0
HIGH_CARD 0.0
HIGH_ONE_PAIR 0.0
To server: call 

river
DIAMONDS 9 

inquire
7777 2760 2000 40 check 
4444 1720 0 40 check 
2222 5240 2000 40 check 
6666 8720 2000 40 check 
5555 2200 2000 40 check 
8888 1120 2000 40 check 
total pot: 240 

7777: 
THREE_OF_A_KIND 0.0
STRAIGHT 0.0
LOW_TWO_PAIR 0.0
LOW_ONE_PAIR 0.0
HIGH_ONE_PAIR 0.0
HIGH_TWO_PAIR 0.0
4444: 
LOW_TWO_PAIR 0.0
FLUSH 0.0
HIGH_TWO_PAIR 0.0
HIGH_ONE_PAIR 0.0
THREE_OF_A_KIND 0.0
LOW_ONE_PAIR 0.0
2222: 
THREE_OF_A_KIND 0.0
LOW_ONE_PAIR 0.0
HIGH_ONE_PAIR 0.0
6666: 
LOW_TWO_PAIR 0.0
THREE_OF_A_KIND 0.0
FLUSH 0.0
HIGH_TWO_PAIR 0.0
HIGH_ONE_PAIR 0.0
LOW_ONE_PAIR 0.0
5555: 
LOW_TWO_PAIR 0.0
HIGH_ONE_PAIR 0.0
HIGH_TWO_PAIR 0.0
FLUSH 0.0
LOW_ONE_PAIR 0.0
To server: call 

showdown
common/ 
SPADES J 
HEARTS Q 
SPADES 9 
SPADES 7 
DIAMONDS 9 
/common 
3: 7777 HEARTS K DIAMONDS A ONE_PAIR 
6: 8888 SPADES 2 HEARTS 5 ONE_PAIR 
4: 5555 SPADES K DIAMONDS 8 ONE_PAIR 
5: 6666 SPADES 10 HEARTS 6 ONE_PAIR 
1: 2222 HEARTS 7 CLUBS 9 FULL_HOUSE 
2: 4444 DIAMONDS K HEARTS 9 THREE_OF_A_KIND 

pot-win
2222: 240 

seat
button: 7777 2760 2000 
small blind: 8888 1120 2000 
big blind: 5555 2200 2000 
6666 8720 2000 
2222 5480 2000 
4444 1720 0 

blind
8888: 20 
5555: 40 

hold
DIAMONDS 6 
HEARTS 10 

inquire
7777 2720 2000 40 call 
4444 1680 0 40 call 
2222 5440 2000 40 call 
6666 8680 2000 40 call 
5555 2160 2000 40 blind 
8888 1100 2000 20 blind 
total pot: 220 

7777: 
BIG_PAIR 0.04305415
SMALL_PAIR 0.024959743
SMALL_FLUSH 0.08726791
LOW_SINGLE 0.51669526
HIGH_SINGLE 0.036507938
4444: 
HIGH_SINGLE 0.071651496
LOW_SINGLE 0.46120396
BIG_PAIR 0.039888684
SMALL_FLUSH 0.15938263
BIG_FLUSH 0.014270612
2222: 
SMALL_FLUSH 0.39387864
SMALL_PAIR 0.14030005
6666: 
BIG_FLUSH 0.026595287
SMALL_FLUSH 0.15940699
LOW_SINGLE 0.28889114
HIGH_SINGLE 0.01440367
BIG_PAIR 0.014954128
To server: call 

flop
HEARTS 6 
SPADES 6 
HEARTS 3 

inquire
7777 2720 2000 40 call 
4444 1680 0 40 call 
2222 5440 2000 40 call 
6666 8680 2000 40 call 
5555 2160 2000 40 check 
8888 1080 2000 40 call 
total pot: 240 

7777: 
HIGH_TWO_PAIR 0.030065356
LOW_ONE_PAIR 0.1371742
HIGH_ONE_PAIR 0.06310013
HIGH_CARD 0.033625737
STRAIGHT_1 0.0
THREE_OF_A_KIND 0.0
4444: 
HIGH_ONE_PAIR 0.235659
THREE_OF_A_KIND 0.04265873
HIGH_TWO_PAIR 0.0
LOW_ONE_PAIR 0.13210446
HIGH_CARD 0.065003775
STRAIGHT_1 0.06300367
2222: 
FLUSH_1 0.11991248
HIGH_TWO_PAIR 0.10418253
THREE_OF_A_KIND 0.10458015
6666: 
THREE_OF_A_KIND 0.015386085
HIGH_ONE_PAIR 0.17296787
STRAIGHT_1 0.041666668
HIGH_CARD 0.22536421
LOW_ONE_PAIR 0.2083915
5555: 
STRAIGHT_1 0.07623626
LOW_TWO_PAIR 0.0
HIGH_TWO_PAIR 0.035664335
HIGH_ONE_PAIR 0.2606661
HIGH_CARD 0.15272617
LOW_ONE_PAIR 0.16396545
To server: call 

turn
HEARTS K 

inquire
7777 2720 2000 40 check 
4444 1680 0 40 check 
2222 5440 2000 40 check 
6666 8680 2000 40 check 
5555 2160 2000 40 check 
8888 1080 2000 40 check 
total pot: 240 

7777: 
LOW_ONE_PAIR 0.0
LOW_TWO_PAIR 0.0
STRAIGHT 0.0
HIGH_ONE_PAIR 0.0
STRAIGHT_1 0.0
THREE_OF_A_KIND 0.0
HIGH_TWO_PAIR 0.0
4444: 
THREE_OF_A_KIND 0.0
STRAIGHT_1 0.0
HIGH_TWO_PAIR 0.0
LOW_ONE_PAIR 0.0
FLUSH 0.0
LOW_TWO_PAIR 0.0
HIGH_ONE_PAIR 0.0
HIGH_CARD 0.0
2222: 
HIGH_TWO_PAIR 0.0
FLUSH_1 0.0
FULL_HOUSE_UP 0.0
6666: 
HIGH_ONE_PAIR 0.0
LOW_TWO_PAIR 0.0
FLUSH 0.0
FLUSH_1 0.0
LOW_ONE_PAIR 0.0
HIGH_CARD 0.0
THREE_OF_A_KIND 0.0
HIGH_TWO_PAIR 0.0
5555: 
FLUSH_1 0.0
HIGH_TWO_PAIR 0.0
STRAIGHT_1 0.0
HIGH_ONE_PAIR 0.0
LOW_ONE_PAIR 0.0
HIGH_CARD 0.0
LOW_TWO_PAIR 0.0
To server: call 

river
DIAMONDS K 

inquire
7777 2720 2000 40 check 
4444 1680 0 40 check 
2222 5440 2000 40 check 
6666 8680 2000 40 check 
5555 2160 2000 40 check 
8888 1080 2000 40 check 
total pot: 240 

7777: 
LOW_ONE_PAIR 0.0
LOW_TWO_PAIR 0.0
STRAIGHT 0.0
HIGH_TWO_PAIR 0.0
HIGH_ONE_PAIR 0.0
THREE_OF_A_KIND 0.0
4444: 
LOW_TWO_PAIR 0.0
HIGH_ONE_PAIR 0.0
THREE_OF_A_KIND 0.0
LOW_ONE_PAIR 0.0
FLUSH 0.0
HIGH_TWO_PAIR 0.0
2222: 
HIGH_ONE_PAIR 0.0
LOW_ONE_PAIR 0.0
THREE_OF_A_KIND 0.0
6666: 
HIGH_ONE_PAIR 0.0
FLUSH 0.0
HIGH_TWO_PAIR 0.0
THREE_OF_A_KIND 0.0
LOW_ONE_PAIR 0.0
LOW_TWO_PAIR 0.0
5555: 
LOW_TWO_PAIR 0.0
LOW_ONE_PAIR 0.0
HIGH_TWO_PAIR 0.0
HIGH_ONE_PAIR 0.0
FLUSH 0.0
To server: all_in 

notify
7777 40 2000 2720 raise 
4444 600 0 1120 call 
2222 4360 2000 1120 call 
6666 7600 2000 1120 call 
5555 1080 2000 1120 call 
8888 0 2000 1120 all_in 
total pot: 8320 

showdown
common/ 
HEARTS 6 
SPADES 6 
HEARTS 3 
HEARTS K 
DIAMONDS K 
/common 
2: 8888 DIAMONDS 6 HEARTS 10 FULL_HOUSE 
3: 2222 CLUBS A CLUBS 2 TWO_PAIR 
1: 7777 SPADES 2 CLUBS K FULL_HOUSE 

pot-win
7777: 9920 

seat
button: 8888 2000 0 
small blind: 5555 1080 2000 
big blind: 6666 7600 2000 
2222 2760 2000 
4444 600 0 
7777 9960 2000 

blind
5555: 20 
6666: 40 

hold
SPADES 9 
CLUBS 9 

inquire
7777 9920 2000 40 call 
4444 560 0 40 call 
2222 2720 2000 40 call 
6666 7560 2000 40 blind 
5555 1060 2000 20 blind 
total pot: 180 

7777: 
HIGH_SINGLE 0.040160637
BIG_PAIR 0.011504569
LOW_SINGLE 0.14748359
SMALL_PAIR 0.006669534
SMALL_FLUSH 0.06720372
4444: 
BIG_PAIR 0.013914656
LOW_SINGLE 0.26410162
SMALL_FLUSH 0.113051526
HIGH_SINGLE 0.040235754
BIG_FLUSH 0.040909093
2222: 
SMALL_PAIR 0.06477357
SMALL_FLUSH 0.22381623
To server: call 

notify
7777 9920 2000 40 call 
4444 560 0 40 call 
2222 2720 2000 40 call 
6666 7560 2000 40 check 
5555 1040 2000 40 call 
8888 1960 0 40 call 
total pot: 240 

flop
DIAMONDS 2 
DIAMONDS 5 
SPADES J 

inquire
7777 9920 2000 40 check 
4444 560 0 40 check 
2222 2720 2000 40 check 
6666 7560 2000 40 check 
5555 1040 2000 40 check 
8888 1960 0 40 call 
total pot: 240 

7777: 
HIGH_TWO_PAIR 0.048766494
HIGH_CARD 0.11701129
THREE_OF_A_KIND 0.0
HIGH_ONE_PAIR 0.20912221
STRAIGHT_1 0.0
LOW_ONE_PAIR 0.30203587
4444: 
HIGH_TWO_PAIR 0.0
STRAIGHT_1 0.02197802
HIGH_CARD 0.022675736
THREE_OF_A_KIND 0.014880952
HIGH_ONE_PAIR 0.120837756
LOW_ONE_PAIR 0.04608295
2222: 
HIGH_CARD 0.16383453
THREE_OF_A_KIND 0.012540894
FLUSH_1 0.01437949
HIGH_TWO_PAIR 0.012493207
6666: 
STRAIGHT_1 0.036314983
LOW_ONE_PAIR 0.23910184
HIGH_ONE_PAIR 0.1984579
THREE_OF_A_KIND 0.01765351
HIGH_CARD 0.2585758
5555: 
HIGH_ONE_PAIR 0.12796335
LOW_ONE_PAIR 0.080492124
LOW_TWO_PAIR 0.0
HIGH_TWO_PAIR 0.020361992
HIGH_CARD 0.07497466
STRAIGHT_1 0.037425075
To server: call 

turn
SPADES 8 

inquire
7777 9920 2000 40 check 
4444 560 0 40 check 
2222 2720 2000 40 check 
6666 7560 2000 40 check 
5555 1040 2000 40 check 
8888 1960 0 40 check 
total pot: 240 

7777: 
HIGH_ONE_PAIR 0.0
STRAIGHT_1 0.0
LOW_ONE_PAIR 0.0
HIGH_TWO_PAIR 0.0
THREE_OF_A_KIND 0.0
STRAIGHT 0.0
LOW_TWO_PAIR 0.0
4444: 
STRAIGHT_1 0.0
LOW_TWO_PAIR 0.0
HIGH_TWO_PAIR 0.0
HIGH_CARD 0.0
FLUSH 0.0
THREE_OF_A_KIND 0.0
HIGH_ONE_PAIR 0.0
LOW_ONE_PAIR 0.0
2222: 
HIGH_TWO_PAIR 0.0
FLUSH_1 0.0
FULL_HOUSE_UP 0.0
6666: 
HIGH_CARD 0.0
LOW_TWO_PAIR 0.0
THREE_OF_A_KIND 0.0
LOW_ONE_PAIR 0.0
FLUSH_1 0.0
HIGH_ONE_PAIR 0.0
HIGH_TWO_PAIR 0.0
FLUSH 0.0
5555: 
LOW_ONE_PAIR 0.0
FLUSH_1 0.0
LOW_TWO_PAIR 0.0
STRAIGHT_1 0.0
HIGH_ONE_PAIR 0.0
HIGH_CARD 0.0
HIGH_TWO_PAIR 0.0
To server: call 

river
HEARTS 9 

inquire
7777 9920 2000 40 check 
4444 560 0 40 fold 
2222 2720 2000 40 check 
6666 7560 2000 40 check 
5555 1040 2000 40 check 
8888 1960 0 40 check 
total pot: 240 

7777: 
LOW_TWO_PAIR 0.0
HIGH_ONE_PAIR 0.0
LOW_ONE_PAIR 0.0
STRAIGHT 0.0
THREE_OF_A_KIND 0.0
HIGH_TWO_PAIR 0.0
2222: 
LOW_ONE_PAIR 0.0
HIGH_ONE_PAIR 0.0
THREE_OF_A_KIND 0.0
6666: 
THREE_OF_A_KIND 0.0
HIGH_TWO_PAIR 0.0
LOW_ONE_PAIR 0.0
HIGH_ONE_PAIR 0.0
FLUSH 0.0
LOW_TWO_PAIR 0.0
5555: 
LOW_ONE_PAIR 0.0
HIGH_ONE_PAIR 0.0
FLUSH 0.0
LOW_TWO_PAIR 0.0
HIGH_TWO_PAIR 0.0
To server: call 

showdown
common/ 
DIAMONDS 2 
DIAMONDS 5 
SPADES J 
SPADES 8 
HEARTS 9 
/common 
1: 5555 SPADES 10 SPADES Q STRAIGHT 
4: 6666 CLUBS A SPADES 2 ONE_PAIR 
5: 2222 DIAMONDS Q HEARTS 4 HIGH_CARD 
3: 7777 CLUBS J HEARTS 8 TWO_PAIR 
2: 8888 SPADES 9 CLUBS 9 THREE_OF_A_KIND 

pot-win
5555: 240 

seat
button: 5555 1280 2000 
small blind: 6666 7560 2000 
big blind: 2222 2720 2000 
4444 560 0 
7777 9920 2000 
8888 1960 0 

blind
6666: 20 
2222: 40 

hold
CLUBS 8 
HEARTS Q 

inquire
7777 9880 2000 40 call 
4444 520 0 40 call 
2222 2680 2000 40 blind 
6666 7540 2000 20 blind 
total pot: 140 

7777: 
HIGH_SINGLE 0.03893214
SMALL_PAIR 0.0064655175
LOW_SINGLE 0.15662621
SMALL_FLUSH 0.06514799
BIG_PAIR 0.011152649
4444: 
SMALL_FLUSH 0.10551476
BIG_PAIR 0.012987012
LOW_SINGLE 0.24649486
BIG_FLUSH 0.04383117
HIGH_SINGLE 0.03755337
To server: call 

notify
7777 9880 2000 40 call 
4444 520 0 40 call 
2222 2680 2000 40 check 
6666 7520 2000 40 call 
5555 1240 2000 40 call 
8888 1920 0 40 call 
total pot: 240 

flop
DIAMONDS 6 
DIAMONDS 3 
DIAMONDS 9 

inquire
7777 9880 2000 40 check 
4444 520 0 40 check 
2222 2680 2000 40 check 
6666 7520 2000 40 check 
5555 1240 2000 40 call 
8888 1920 0 40 call 
total pot: 240 

7777: 
LOW_ONE_PAIR 0.29279676
STRAIGHT_1 0.0
HIGH_TWO_PAIR 0.047274746
HIGH_ONE_PAIR 0.21115369
HIGH_CARD 0.11252269
THREE_OF_A_KIND 0.0
4444: 
STRAIGHT_1 0.02051282
HIGH_TWO_PAIR 0.0
HIGH_ONE_PAIR 0.1127819
LOW_ONE_PAIR 0.043010745
HIGH_CARD 0.02116402
THREE_OF_A_KIND 0.013888893
2222: 
FLUSH_1 0.01352696
HIGH_CARD 0.17914312
THREE_OF_A_KIND 0.011797363
HIGH_TWO_PAIR 0.011752502
6666: 
THREE_OF_A_KIND 0.017037036
STRAIGHT_1 0.0346789
HIGH_ONE_PAIR 0.19152762
HIGH_CARD 0.24954614
LOW_ONE_PAIR 0.2920458
5555: 
LOW_ONE_PAIR 0.09186481
STRAIGHT_1 0.04271285
LOW_TWO_PAIR 0.0
HIGH_ONE_PAIR 0.14604323
HIGH_CARD 0.085567795
HIGH_TWO_PAIR 0.023238925
To server: call 

turn
SPADES A 

inquire
7777 9880 2000 40 check 
4444 520 0 40 check 
2222 2680 2000 40 check 
6666 7520 2000 40 check 
5555 1240 2000 40 check 
8888 1920 0 40 check 
total pot: 240 

7777: 
HIGH_ONE_PAIR 0.0
STRAIGHT 0.0
STRAIGHT_1 0.0
HIGH_TWO_PAIR 0.0
LOW_TWO_PAIR 0.0
THREE_OF_A_KIND 0.0
LOW_ONE_PAIR 0.0
4444: 
LOW_TWO_PAIR 0.0
HIGH_CARD 0.0
HIGH_TWO_PAIR 0.0
THREE_OF_A_KIND 0.0
STRAIGHT_1 0.0
LOW_ONE_PAIR 0.0
FLUSH 0.0
HIGH_ONE_PAIR 0.0
2222: 
FULL_HOUSE_UP 0.0
HIGH_TWO_PAIR 0.0
FLUSH_1 0.0
6666: 
HIGH_ONE_PAIR 0.0
LOW_ONE_PAIR 0.0
FLUSH_1 0.0
LOW_TWO_PAIR 0.0
HIGH_TWO_PAIR 0.0
THREE_OF_A_KIND 0.0
FLUSH 0.0
HIGH_CARD 0.0
5555: 
FLUSH_1 0.0
LOW_TWO_PAIR 0.0
LOW_ONE_PAIR 0.0
STRAIGHT_1 0.0
HIGH_CARD 0.0
HIGH_TWO_PAIR 0.0
HIGH_ONE_PAIR 0.0
To server: call 

river
DIAMONDS J 

inquire
7777 9880 2000 40 check 
4444 520 0 40 fold 
2222 2680 2000 40 check 
6666 7520 2000 40 check 
5555 1240 2000 40 check 
8888 1920 0 40 check 
total pot: 240 

7777: 
THREE_OF_A_KIND 0.0
HIGH_ONE_PAIR 0.0
HIGH_TWO_PAIR 0.0
LOW_TWO_PAIR 0.0
LOW_ONE_PAIR 0.0
STRAIGHT 0.0
2222: 
HIGH_ONE_PAIR 0.0
THREE_OF_A_KIND 0.0
LOW_ONE_PAIR 0.0
6666: 
THREE_OF_A_KIND 0.0
LOW_ONE_PAIR 0.0
HIGH_TWO_PAIR 0.0
HIGH_ONE_PAIR 0.0
LOW_TWO_PAIR 0.0
FLUSH 0.0
5555: 
STRAIGHT 0.0
HIGH_ONE_PAIR 0.0
FLUSH 0.0
HIGH_TWO_PAIR 0.0
LOW_ONE_PAIR 0.0
LOW_TWO_PAIR 0.0
To server: fold 

showdown
common/ 
DIAMONDS 6 
DIAMONDS 3 
DIAMONDS 9 
SPADES A 
DIAMONDS J 
/common 
1: 6666 DIAMONDS 10 CLUBS A FLUSH 
4: 2222 SPADES 2 CLUBS 7 HIGH_CARD 
2: 7777 CLUBS K CLUBS J ONE_PAIR 
3: 5555 HEARTS 5 HEARTS 3 ONE_PAIR 

pot-win
6666: 240 

seat
button: 6666 7760 2000 
small blind: 2222 2680 2000 
big blind: 4444 520 0 
7777 9880 2000 
8888 1920 0 
5555 1240 2000 

blind
2222: 20 
4444: 40 

hold
HEARTS A 
CLUBS 3 

inquire
7777 9840 2000 40 call 
4444 480 0 40 blind 
2222 2660 2000 20 blind 
total pot: 100 

7777: 
BIG_PAIR 0.010824542
BIG_FLUSH 0.033198923
SMALL_FLUSH 0.063231364
LOW_SINGLE 0.15201831
HIGH_SINGLE 0.037786778
SMALL_PAIR 0.006275306
To server: call 

notify
7777 9840 2000 40 call 
4444 480 0 40 check 
2222 2640 2000 40 call 
6666 7720 2000 40 call 
5555 1200 2000 40 call 
8888 1880 0 40 call 
total pot: 240 

flop
DIAMONDS K 
CLUBS 8 
SPADES 4 

inquire
7777 9840 2000 40 check 
4444 480 0 40 check 
2222 2640 2000 40 check 
6666 7720 2000 40 call 
5555 1200 2000 40 call 
8888 1880 0 40 call 
total pot: 240 

7777: 
HIGH_ONE_PAIR 0.20329218
THREE_OF_A_KIND 0.0
LOW_ONE_PAIR 0.28418282
HIGH_TWO_PAIR 0.045883942
HIGH_CARD 0.108333334
STRAIGHT_1 0.0
4444: 
HIGH_TWO_PAIR 0.0
STRAIGHT_1 0.019047618
HIGH_CARD 0.019652303
LOW_ONE_PAIR 0.03993855
THREE_OF_A_KIND 0.012896822
HIGH_ONE_PAIR 0.10472606
2222: 
HIGH_TWO_PAIR 0.011076212
THREE_OF_A_KIND 0.011118487
FLUSH_1 0.0127485525
HIGH_CARD 0.19497378
6666: 
THREE_OF_A_KIND 0.015959553
STRAIGHT_1 0.03422724
FLUSH_1 0.0
LOW_ONE_PAIR 0.2735758
HIGH_CARD 0.233764
HIGH_ONE_PAIR 0.17941473
5555: 
HIGH_CARD 0.0799333
LOW_TWO_PAIR 0.0
STRAIGHT_1 0.039900284
LOW_ONE_PAIR 0.12152995
HIGH_ONE_PAIR 0.13642654
HIGH_TWO_PAIR 0.021708684
To server: call 

turn
CLUBS 7 

inquire
7777 9840 2000 40 check 
4444 480 0 40 check 
2222 2640 2000 40 check 
6666 7720 2000 40 check 
5555 1200 2000 40 check 
8888 1880 0 40 check 
total pot: 240 

7777: 
THREE_OF_A_KIND 0.0
STRAIGHT 0.0
HIGH_ONE_PAIR 0.0
STRAIGHT_1 0.0
LOW_ONE_PAIR 0.0
HIGH_TWO_PAIR 0.0
LOW_TWO_PAIR 0.0
HIGH_CARD 0.0
4444: 
FLUSH 0.0
THREE_OF_A_KIND 0.0
HIGH_CARD 0.0
HIGH_ONE_PAIR 0.0
LOW_ONE_PAIR 0.0
LOW_TWO_PAIR 0.0
HIGH_TWO_PAIR 0.0
STRAIGHT_1 0.0
2222: 
FLUSH_1 0.0
HIGH_TWO_PAIR 0.0
FULL_HOUSE_UP 0.0
6666: 
FLUSH 0.0
LOW_ONE_PAIR 0.0
LOW_TWO_PAIR 0.0
FLUSH_1 0.0
THREE_OF_A_KIND 0.0
HIGH_TWO_PAIR 0.0
HIGH_CARD 0.0
HIGH_ONE_PAIR 0.0
5555: 
FLUSH_1 0.0
LOW_TWO_PAIR 0.0
HIGH_TWO_PAIR 0.0
HIGH_CARD 0.0
LOW_ONE_PAIR 0.0
HIGH_ONE_PAIR 0.0
STRAIGHT_1 0.0
To server: call 

river
DIAMONDS 10 

inquire
7777 9840 2000 40 check 
4444 480 0 40 fold 
2222 2640 2000 40 check 
6666 7720 2000 40 check 
5555 1200 2000 40 check 
8888 1880 0 40 check 
total pot: 240 

7777: 
HIGH_ONE_PAIR 0.0
STRAIGHT 0.0
LOW_TWO_PAIR 0.0
THREE_OF_A_KIND 0.0
HIGH_TWO_PAIR 0.0
LOW_ONE_PAIR 0.0
2222: 
THREE_OF_A_KIND 0.0
HIGH_ONE_PAIR 0.0
LOW_ONE_PAIR 0.0
6666: 
THREE_OF_A_KIND 0.0
LOW_TWO_PAIR 0.0
FLUSH 0.0
HIGH_ONE_PAIR 0.0
LOW_ONE_PAIR 0.0
HIGH_TWO_PAIR 0.0
5555: 
FLUSH 0.0
HIGH_ONE_PAIR 0.0
STRAIGHT 0.0
LOW_TWO_PAIR 0.0
LOW_ONE_PAIR 0.0
HIGH_TWO_PAIR 0.0
To server: fold 

showdown
common/ 
DIAMONDS K 
CLUBS 8 
SPADES 4 
CLUBS 7 
DIAMONDS 10 
/common 
2: 2222 SPADES Q CLUBS 5 HIGH_CARD 
1: 7777 SPADES 10 HEARTS K TWO_PAIR 

pot-win
7777: 240 

seat
button: 2222 2640 2000 
small blind: 4444 480 0 
big blind: 7777 10080 2000 
8888 1880 0 
5555 1200 2000 
6666 7720 2000 

blind
4444: 20 
7777: 40 

hold
DIAMONDS Q 
HEARTS J 

inquire
7777 10040 2000 40 blind 
4444 460 0 20 blind 
total pot: 60 

To server: call 

notify
7777 10040 2000 40 check 
4444 440 0 40 call 
2222 2600 2000 40 call 
6666 7680 2000 40 call 
5555 1160 2000 40 call 
8888 1840 0 40 call 
total pot: 240 

flop
SPADES 9 
SPADES Q 
CLUBS J 

inquire
7777 10040 2000 40 check 
4444 440 0 40 check 
2222 2600 2000 40 call 
6666 7680 2000 40 call 
5555 1160 2000 40 call 
8888 1840 0 40 call 
total pot: 240 

7777: 
STRAIGHT_1 0.0
THREE_OF_A_KIND 0.0
HIGH_TWO_PAIR 0.04352279
HIGH_ONE_PAIR 0.20071684
LOW_ONE_PAIR 0.26955894
HIGH_CARD 0.10696095
4444: 
HIGH_CARD 0.018140588
THREE_OF_A_KIND 0.011904757
HIGH_TWO_PAIR 0.0
STRAIGHT_1 0.017582417
LOW_ONE_PAIR 0.03686636
HIGH_ONE_PAIR 0.096670195
2222: 
HIGH_TWO_PAIR 0.010456274
HIGH_CARD 0.21134208
FLUSH_1 0.012035008
THREE_OF_A_KIND 0.010496181
6666: 
HIGH_ONE_PAIR 0.18034436
THREE_OF_A_KIND 0.016042246
HIGH_CARD 0.2349752
LOW_ONE_PAIR 0.2749933
STRAIGHT_1 0.03405081
FLUSH_1 0.0
5555: 
HIGH_CARD 0.0773548
STRAIGHT_1 0.038613174
LOW_ONE_PAIR 0.11760963
HIGH_ONE_PAIR 0.13202567
HIGH_TWO_PAIR 0.021008402
LOW_TWO_PAIR 0.0
To server: call 

turn
SPADES 4 

inquire
7777 10040 2000 40 check 
4444 440 0 40 check 
2222 2600 2000 40 check 
6666 7680 2000 40 check 
5555 1160 2000 40 check 
8888 1840 0 40 check 
total pot: 240 

7777: 
STRAIGHT 0.0
LOW_ONE_PAIR 0.0
STRAIGHT_1 0.0
HIGH_TWO_PAIR 0.0
HIGH_ONE_PAIR 0.0
LOW_TWO_PAIR 0.0
THREE_OF_A_KIND 0.0
HIGH_CARD 0.0
4444: 
LOW_TWO_PAIR 0.0
LOW_ONE_PAIR 0.0
THREE_OF_A_KIND 0.0
STRAIGHT_1 0.0
FLUSH 0.0
HIGH_CARD 0.0
HIGH_TWO_PAIR 0.0
HIGH_ONE_PAIR 0.0
2222: 
FLUSH_1 0.0
FULL_HOUSE_UP 0.0
HIGH_TWO_PAIR 0.0
6666: 
FLUSH 0.0
HIGH_TWO_PAIR 0.0
HIGH_CARD 0.0
FLUSH_1 0.0
LOW_ONE_PAIR 0.0
THREE_OF_A_KIND 0.0
LOW_TWO_PAIR 0.0
HIGH_ONE_PAIR 0.0
5555: 
LOW_ONE_PAIR 0.0
HIGH_TWO_PAIR 0.0
LOW_TWO_PAIR 0.0
STRAIGHT_1 0.0
HIGH_CARD 0.0
HIGH_ONE_PAIR 0.0
FLUSH_1 0.0
To server: call 

river
HEARTS 5 

inquire
7777 10040 2000 40 check 
4444 440 0 40 check 
2222 2600 2000 40 check 
6666 7680 2000 40 check 
5555 1160 2000 40 check 
8888 1840 0 40 check 
total pot: 240 

7777: 
HIGH_TWO_PAIR 0.0
LOW_TWO_PAIR 0.0
THREE_OF_A_KIND 0.0
LOW_ONE_PAIR 0.0
STRAIGHT 0.0
HIGH_ONE_PAIR 0.0
4444: 
LOW_TWO_PAIR 0.0
HIGH_ONE_PAIR 0.0
LOW_ONE_PAIR 0.0
HIGH_TWO_PAIR 0.0
FLUSH 0.0
THREE_OF_A_KIND 0.0
2222: 
HIGH_ONE_PAIR 0.0
LOW_ONE_PAIR 0.0
THREE_OF_A_KIND 0.0
6666: 
LOW_ONE_PAIR 0.0
HIGH_TWO_PAIR 0.0
FLUSH 0.0
THREE_OF_A_KIND 0.0
LOW_TWO_PAIR 0.0
HIGH_ONE_PAIR 0.0
5555: 
LOW_TWO_PAIR 0.0
LOW_ONE_PAIR 0.0
FLUSH 0.0
STRAIGHT 0.0
HIGH_ONE_PAIR 0.0
HIGH_TWO_PAIR 0.0
To server: call 

showdown
common/ 
SPADES 9 
SPADES Q 
CLUBS J 
SPADES 4 
HEARTS 5 
/common 
1: 4444 SPADES 8 SPADES K FLUSH 
4: 7777 HEARTS Q HEARTS 3 ONE_PAIR 
2: 8888 DIAMONDS Q HEARTS J TWO_PAIR 
3: 2222 SPADES J DIAMONDS 4 TWO_PAIR 

pot-win
4444: 240 

seat
button: 4444 680 0 
small blind: 7777 10040 2000 
big blind: 8888 1840 0 
5555 1160 2000 
6666 7680 2000 
2222 2600 2000 

blind
7777: 20 
8888: 40 

hold
DIAMONDS 7 
CLUBS 6 

inquire
7777 10000 2000 40 call 
4444 640 0 40 call 
2222 2560 2000 40 call 
6666 7640 2000 40 call 
5555 1120 2000 40 call 
8888 1800 0 40 blind 
total pot: 240 

7777: 
LOW_SINGLE 0.14024597
SMALL_PAIR 0.0057893433
BIG_PAIR 0.009986289
SMALL_FLUSH 0.09114798
HIGH_SINGLE 0.06111595
BIG_FLUSH 0.030876495
4444: 
LOW_SINGLE 0.2863015
BIG_FLUSH 0.034526855
SMALL_FLUSH 0.18414862
BIG_PAIR 0.0150842955
HIGH_SINGLE 0.043617893
2222: 
SMALL_PAIR 0.061018568
SMALL_FLUSH 0.2108414
6666: 
SMALL_FLUSH 0.16758645
BIG_FLUSH 0.027959943
LOW_SINGLE 0.348652
HIGH_SINGLE 0.04279595
BIG_PAIR 0.015721451
5555: 
HIGH_SINGLE 0.08168923
LOW_SINGLE 0.2922999
SMALL_PAIR 0.018170426
BIG_FLUSH 0.03325123
SMALL_FLUSH 0.09437611
BIG_PAIR 0.060161617
To server: call 

flop
SPADES 6 
HEARTS 10 
SPADES A 

inquire
7777 10000 2000 40 check 
4444 640 0 40 call 
2222 2560 2000 40 call 
6666 7640 2000 40 call 
5555 1120 2000 40 call 
8888 1800 0 40 check 
total pot: 240 

7777: 
HIGH_CARD 0.10320724
THREE_OF_A_KIND 0.0
HIGH_ONE_PAIR 0.19367282
STRAIGHT_1 0.0
LOW_ONE_PAIR 0.26217562
HIGH_TWO_PAIR 0.04233068
4444: 
THREE_OF_A_KIND 0.016098488
STRAIGHT_1 0.023776222
FLUSH_1 0.0
HIGH_ONE_PAIR 0.13072449
HIGH_CARD 0.024531024
HIGH_TWO_PAIR 0.0
LOW_ONE_PAIR 0.04985337
2222: 
HIGH_CARD 0.21459346
THREE_OF_A_KIND 0.010337149
HIGH_TWO_PAIR 0.010297845
FLUSH_1 0.011852667
6666: 
HIGH_CARD 0.23619905
STRAIGHT_1 0.033874378
HIGH_ONE_PAIR 0.18128364
THREE_OF_A_KIND 0.0161258
LOW_ONE_PAIR 0.27642557
FLUSH_1 0.0
5555: 
STRAIGHT_1 0.03732607
LOW_ONE_PAIR 0.11368931
HIGH_ONE_PAIR 0.12762482
HIGH_TWO_PAIR 0.020308124
HIGH_CARD 0.07477633
LOW_TWO_PAIR 0.0
To server: call 

turn
HEARTS 4 

inquire
7777 10000 2000 40 check 
4444 640 0 40 check 
2222 2560 2000 40 check 
6666 7640 2000 40 check 
5555 1120 2000 40 check 
8888 1800 0 40 check 
total pot: 240 

7777: 
STRAIGHT_1 0.0
HIGH_TWO_PAIR 0.0
HIGH_ONE_PAIR 0.0
LOW_TWO_PAIR 0.0
HIGH_CARD 0.0
LOW_ONE_PAIR 0.0
STRAIGHT 0.0
THREE_OF_A_KIND 0.0
4444: 
STRAIGHT_1 0.0
LOW_ONE_PAIR 0.0
THREE_OF_A_KIND 0.0
HIGH_CARD 0.0
FLUSH 0.0
LOW_TWO_PAIR 0.0
HIGH_ONE_PAIR 0.0
HIGH_TWO_PAIR 0.0
2222: 
FULL_HOUSE_UP 0.0
HIGH_TWO_PAIR 0.0
FLUSH_1 0.0
6666: 
FLUSH 0.0
HIGH_ONE_PAIR 0.0
HIGH_TWO_PAIR 0.0
FLUSH_1 0.0
LOW_ONE_PAIR 0.0
HIGH_CARD 0.0
LOW_TWO_PAIR 0.0
THREE_OF_A_KIND 0.0
5555: 
FLUSH_1 0.0
LOW_ONE_PAIR 0.0
HIGH_ONE_PAIR 0.0
HIGH_TWO_PAIR 0.0
STRAIGHT_1 0.0
LOW_TWO_PAIR 0.0
HIGH_CARD 0.0
To server: call 

river
DIAMONDS J 

inquire
7777 10000 2000 40 fold 
4444 640 0 40 check 
2222 2560 2000 40 check 
6666 7640 2000 40 check 
5555 1120 2000 40 check 
8888 1800 0 40 check 
total pot: 240 

4444: 
THREE_OF_A_KIND 0.0
LOW_ONE_PAIR 0.0
HIGH_TWO_PAIR 0.0
FLUSH 0.0
HIGH_ONE_PAIR 0.0
LOW_TWO_PAIR 0.0
2222: 
LOW_ONE_PAIR 0.0
THREE_OF_A_KIND 0.0
HIGH_ONE_PAIR 0.0
6666: 
FLUSH 0.0
LOW_ONE_PAIR 0.0
HIGH_ONE_PAIR 0.0
THREE_OF_A_KIND 0.0
HIGH_TWO_PAIR 0.0
LOW_TWO_PAIR 0.0
5555: 
LOW_TWO_PAIR 0.0
FLUSH 0.0
LOW_ONE_PAIR 0.0
HIGH_TWO_PAIR 0.0
HIGH_ONE_PAIR 0.0
STRAIGHT 0.0
To server: call 

showdown
common/ 
SPADES 6 
HEARTS 10 
SPADES A 
HEARTS 4 
DIAMONDS J 
/common 
1: 8888 DIAMONDS 7 CLUBS 6 ONE_PAIR 
2: 2222 SPADES 8 HEARTS 3 HIGH_CARD 

pot-win
8888: 240 

seat
button: 7777 10000 2000 
small blind: 8888 2040 0 
big blind: 5555 1120 2000 
6666 7640 2000 
2222 2560 2000 
4444 640 0 

blind
8888: 20 
5555: 40 

hold
SPADES 5 
DIAMONDS Q 

inquire
7777 9960 2000 40 call 
4444 600 0 40 call 
2222 2520 2000 40 call 
6666 7600 2000 40 call 
5555 1080 2000 40 blind 
8888 2020 0 20 blind 
total pot: 220 

7777: 
BIG_PAIR 0.010026235
HIGH_SINGLE 0.061360415
LOW_SINGLE 0.140807
BIG_FLUSH 0.031000003
SMALL_PAIR 0.0058125015
SMALL_FLUSH 0.091512576
4444: 
BIG_PAIR 0.014196982
LOW_SINGLE 0.26946023
HIGH_SINGLE 0.041052133
SMALL_FLUSH 0.17331636
BIG_FLUSH 0.03668478
2222: 
SMALL_PAIR 0.06007983
SMALL_FLUSH 0.20759766
6666: 
SMALL_FLUSH 0.16846387
HIGH_SINGLE 0.04302001
BIG_FLUSH 0.028106328
BIG_PAIR 0.015803764
LOW_SINGLE 0.35047737
To server: call 

flop
SPADES J 
CLUBS 2 
HEARTS 2 

inquire
7777 9960 2000 40 call 
4444 600 0 40 call 
2222 2520 2000 40 call 
6666 7600 2000 40 call 
5555 1080 2000 40 check 
8888 2000 0 40 call 
total pot: 240 

7777: 
THREE_OF_A_KIND 0.0
LOW_ONE_PAIR 0.2632243
HIGH_ONE_PAIR 0.19290122
STRAIGHT_1 0.0
HIGH_TWO_PAIR 0.0425
HIGH_CARD 0.10279605
4444: 
HIGH_CARD 0.023088021
HIGH_ONE_PAIR 0.12303481
HIGH_TWO_PAIR 0.0
STRAIGHT_1 0.022377621
FLUSH_1 0.0
THREE_OF_A_KIND 0.015151517
LOW_ONE_PAIR 0.04692082
2222: 
HIGH_TWO_PAIR 0.009733839
FLUSH_1 0.011203499
THREE_OF_A_KIND 0.009770992
HIGH_CARD 0.22852112
6666: 
THREE_OF_A_KIND 0.01621023
HIGH_CARD 0.23743568
FLUSH_1 0.0
HIGH_ONE_PAIR 0.18223278
STRAIGHT_1 0.03369795
LOW_ONE_PAIR 0.27787283
5555: 
HIGH_ONE_PAIR 0.12322395
LOW_ONE_PAIR 0.10976899
HIGH_CARD 0.07219783
STRAIGHT_1 0.036038965
LOW_TWO_PAIR 0.0
HIGH_TWO_PAIR 0.019607842
To server: call 

turn
SPADES 10 

inquire
7777 9960 2000 40 check 
4444 600 0 40 check 
2222 2520 2000 40 check 
6666 7600 2000 40 check 
5555 1080 2000 40 check 
8888 2000 0 40 check 
total pot: 240 

7777: 
LOW_TWO_PAIR 0.0
THREE_OF_A_KIND 0.0
STRAIGHT_1 0.0
STRAIGHT 0.0
LOW_ONE_PAIR 0.0
HIGH_ONE_PAIR 0.0
HIGH_CARD 0.0
HIGH_TWO_PAIR 0.0
4444: 
HIGH_CARD 0.0
THREE_OF_A_KIND 0.0
STRAIGHT_1 0.0
LOW_TWO_PAIR 0.0
LOW_ONE_PAIR 0.0
HIGH_ONE_PAIR 0.0
FLUSH 0.0
HIGH_TWO_PAIR 0.0
2222: 
HIGH_TWO_PAIR 0.0
FULL_HOUSE_UP 0.0
FLUSH_1 0.0
6666: 
THREE_OF_A_KIND 0.0
HIGH_TWO_PAIR 0.0
LOW_TWO_PAIR 0.0
FLUSH 0.0
HIGH_CARD 0.0
FLUSH_1 0.0
HIGH_ONE_PAIR 0.0
LOW_ONE_PAIR 0.0
5555: 
FLUSH_1 0.0
STRAIGHT_1 0.0
HIGH_CARD 0.0
LOW_ONE_PAIR 0.0
HIGH_ONE_PAIR 0.0
LOW_TWO_PAIR 0.0
HIGH_TWO_PAIR 0.0
To server: call 

river
CLUBS 5 

inquire
7777 9960 2000 40 check 
4444 600 0 40 check 
2222 2520 2000 40 check 
6666 7600 2000 40 check 
5555 1080 2000 40 check 
8888 2000 0 40 check 
total pot: 240 

7777: 
HIGH_TWO_PAIR 0.0
STRAIGHT 0.0
LOW_TWO_PAIR 0.0
LOW_ONE_PAIR 0.0
THREE_OF_A_KIND 0.0
HIGH_ONE_PAIR 0.0
4444: 
LOW_ONE_PAIR 0.0
LOW_TWO_PAIR 0.0
HIGH_ONE_PAIR 0.0
THREE_OF_A_KIND 0.0
HIGH_TWO_PAIR 0.0
FLUSH 0.0
2222: 
THREE_OF_A_KIND 0.0
LOW_ONE_PAIR 0.0
HIGH_ONE_PAIR 0.0
6666: 
HIGH_TWO_PAIR 0.0
THREE_OF_A_KIND 0.0
LOW_TWO_PAIR 0.0
FLUSH 0.0
LOW_ONE_PAIR 0.0
HIGH_ONE_PAIR 0.0
5555: 
HIGH_ONE_PAIR 0.0
LOW_ONE_PAIR 0.0
STRAIGHT 0.0
LOW_TWO_PAIR 0.0
FLUSH 0.0
HIGH_TWO_PAIR 0.0
To server: call 

showdown
common/ 
SPADES J 
CLUBS 2 
HEARTS 2 
SPADES 10 
CLUBS 5 
/common 
1: 8888 SPADES 5 DIAMONDS Q TWO_PAIR 
6: 5555 CLUBS 7 CLUBS 4 ONE_PAIR 
2: 6666 DIAMONDS 5 DIAMONDS 7 TWO_PAIR 
5: 2222 HEARTS 7 HEARTS 9 ONE_PAIR 
3: 4444 CLUBS Q SPADES K ONE_PAIR 
4: 7777 SPADES 8 HEARTS Q ONE_PAIR 

pot-win
8888: 240 

seat
button: 8888 2240 0 
small blind: 5555 1080 2000 
big blind: 6666 7600 2000 
2222 2520 2000 
4444 600 0 
7777 9960 2000 

blind
5555: 20 
6666: 40 

hold
CLUBS Q 
HEARTS A 

inquire
7777 9920 2000 40 call 
4444 560 0 40 call 
2222 2480 2000 40 call 
6666 7560 2000 40 blind 
5555 1060 2000 20 blind 
total pot: 180 

7777: 
LOW_SINGLE 0.14945644
SMALL_PAIR 0.0056589986
BIG_PAIR 0.009761453
BIG_FLUSH 0.030181332
HIGH_SINGLE 0.059739966
SMALL_FLUSH 0.08909585
4444: 
BIG_FLUSH 0.0375
SMALL_FLUSH 0.1557139
LOW_SINGLE 0.24209315
HIGH_SINGLE 0.07594527
BIG_PAIR 0.012755101
2222: 
SMALL_FLUSH 0.26435554
SMALL_PAIR 0.054591767
To server: call 

notify
7777 9920 2000 40 call 
4444 560 0 40 call 
2222 2480 2000 40 call 
6666 7560 2000 40 check 
5555 1040 2000 40 call 
8888 2200 0 40 call 
total pot: 240 

flop
SPADES 2 
SPADES 3 
CLUBS 4 

inquire
7777 9920 2000 40 check 
4444 560 0 40 check 
2222 2480 2000 40 check 
6666 7560 2000 40 check 
5555 1040 2000 40 check 
8888 2200 0 40 call 
total pot: 240 

7777: 
THREE_OF_A_KIND 0.0
HIGH_TWO_PAIR 0.04137763
HIGH_CARD 0.0992823
HIGH_ONE_PAIR 0.18630752
LOW_ONE_PAIR 0.28408086
STRAIGHT_1 0.0
4444: 
THREE_OF_A_KIND 0.013586956
LOW_ONE_PAIR 0.08555398
STRAIGHT_1 0.020066889
HIGH_ONE_PAIR 0.11033013
HIGH_TWO_PAIR 0.0
HIGH_CARD 0.020703932
FLUSH_1 0.0
2222: 
HIGH_TWO_PAIR 0.009581747
THREE_OF_A_KIND 0.0096183205
FLUSH_1 0.0110284425
HIGH_CARD 0.2321484
6666: 
STRAIGHT_1 0.032279983
HIGH_ONE_PAIR 0.17640702
FLUSH_1 0.0
LOW_ONE_PAIR 0.30476013
HIGH_CARD 0.22984515
THREE_OF_A_KIND 0.015692009
5555: 
STRAIGHT_1 0.033553515
HIGH_ONE_PAIR 0.11472576
HIGH_CARD 0.06721866
HIGH_TWO_PAIR 0.018255578
LOW_TWO_PAIR 0.0
LOW_ONE_PAIR 0.10219871
To server: call 

turn
DIAMONDS 7 

inquire
7777 9920 2000 40 check 
4444 560 0 40 check 
2222 2480 2000 40 check 
6666 7560 2000 40 check 
5555 1040 2000 40 check 
8888 2200 0 40 check 
total pot: 240 

7777: 
HIGH_CARD 0.0
LOW_TWO_PAIR 0.0
THREE_OF_A_KIND 0.0
STRAIGHT_1 0.0
HIGH_TWO_PAIR 0.0
HIGH_ONE_PAIR 0.0
STRAIGHT 0.0
LOW_ONE_PAIR 0.0
4444: 
HIGH_ONE_PAIR 0.0
LOW_ONE_PAIR 0.0
HIGH_CARD 0.0
HIGH_TWO_PAIR 0.0
FLUSH 0.0
THREE_OF_A_KIND 0.0
LOW_TWO_PAIR 0.0
STRAIGHT_1 0.0
2222: 
FULL_HOUSE_UP 0.0
FLUSH_1 0.0
HIGH_TWO_PAIR 0.0
6666: 
HIGH_TWO_PAIR 0.0
LOW_ONE_PAIR 0.0
HIGH_ONE_PAIR 0.0
FLUSH 0.0
THREE_OF_A_KIND 0.0
LOW_TWO_PAIR 0.0
FLUSH_1 0.0
HIGH_CARD 0.0
5555: 
FLUSH_1 0.0
HIGH_ONE_PAIR 0.0
HIGH_TWO_PAIR 0.0
LOW_ONE_PAIR 0.0
LOW_TWO_PAIR 0.0
HIGH_CARD 0.0
STRAIGHT_1 0.0
To server: call 

river
HEARTS 4 

inquire
7777 9920 2000 40 check 
4444 560 0 40 check 
2222 2480 2000 40 check 
6666 7560 2000 40 check 
5555 1040 2000 40 check 
8888 2200 0 40 check 
total pot: 240 

7777: 
STRAIGHT 0.0
HIGH_ONE_PAIR 0.0
THREE_OF_A_KIND 0.0
LOW_TWO_PAIR 0.0
LOW_ONE_PAIR 0.0
HIGH_TWO_PAIR 0.0
4444: 
THREE_OF_A_KIND 0.0
HIGH_TWO_PAIR 0.0
FLUSH 0.0
LOW_ONE_PAIR 0.0
HIGH_ONE_PAIR 0.0
LOW_TWO_PAIR 0.0
2222: 
HIGH_ONE_PAIR 0.0
THREE_OF_A_KIND 0.0
LOW_ONE_PAIR 0.0
6666: 
HIGH_TWO_PAIR 0.0
LOW_ONE_PAIR 0.0
HIGH_ONE_PAIR 0.0
THREE_OF_A_KIND 0.0
LOW_TWO_PAIR 0.0
FLUSH 0.0
5555: 
STRAIGHT 0.0
HIGH_ONE_PAIR 0.0
LOW_TWO_PAIR 0.0
LOW_ONE_PAIR 0.0
HIGH_TWO_PAIR 0.0
FLUSH 0.0
To server: call 

showdown
common/ 
SPADES 2 
SPADES 3 
CLUBS 4 
DIAMONDS 7 
HEARTS 4 
/common 
4: 5555 HEARTS 2 SPADES 5 TWO_PAIR 
6: 6666 CLUBS 5 HEARTS Q ONE_PAIR 
1: 2222 DIAMONDS 5 HEARTS 6 STRAIGHT 
3: 4444 DIAMONDS 8 SPADES 4 THREE_OF_A_KIND 
2: 7777 DIAMONDS 4 SPADES A THREE_OF_A_KIND 
5: 8888 CLUBS Q HEARTS A ONE_PAIR 

pot-win
2222: 240 

seat
button: 5555 1040 2000 
small blind: 6666 7560 2000 
big blind: 2222 2720 2000 
4444 560 0 
7777 9920 2000 
8888 2200 0 

blind
6666: 20 
2222: 40 

hold
HEARTS 7 
HEARTS 4 

inquire
7777 9880 2000 40 call 
4444 520 0 40 call 
2222 2680 2000 40 blind 
6666 7540 2000 20 blind 
total pot: 140 

7777: 
LOW_SINGLE 0.15807891
BIG_PAIR 0.009512554
HIGH_SINGLE 0.058216706
SMALL_PAIR 0.005514706
SMALL_FLUSH 0.08682407
BIG_FLUSH 0.029411765
4444: 
SMALL_FLUSH 0.13951965
BIG_FLUSH 0.03857143
LOW_SINGLE 0.2542488
BIG_PAIR 0.01142857
HIGH_SINGLE 0.06804696
To server: call 

notify
7777 9880 2000 40 call 
4444 520 0 40 call 
2222 2680 2000 40 check 
6666 7520 2000 40 call 
5555 1000 2000 40 call 
8888 2160 0 40 call 
total pot: 240 

flop
SPADES 5 
HEARTS 8 
DIAMONDS K 

inquire
7777 9880 2000 40 check 
4444 520 0 40 check 
2222 2680 2000 40 check 
6666 7520 2000 40 check 
5555 1000 2000 40 call 
8888 2160 0 40 call 
total pot: 240 

7777: 
HIGH_CARD 0.09597524
HIGH_TWO_PAIR 0.040322576
HIGH_ONE_PAIR 0.18010168
STRAIGHT_1 0.0
LOW_ONE_PAIR 0.32106575
THREE_OF_A_KIND 0.0
4444: 
STRAIGHT_1 0.017948717
LOW_ONE_PAIR 0.07652329
THREE_OF_A_KIND 0.012152781
HIGH_ONE_PAIR 0.09868416
FLUSH_1 0.0
HIGH_CARD 0.018518517
HIGH_TWO_PAIR 0.0
2222: 
HIGH_CARD 0.20680644
HIGH_TWO_PAIR 0.009944425
THREE_OF_A_KIND 0.009982384
STRAIGHT 0.0
FLUSH_1 0.011445889
6666: 
THREE_OF_A_KIND 0.01521164
FLUSH_1 0.0
HIGH_ONE_PAIR 0.1710068
LOW_ONE_PAIR 0.29543072
HIGH_CARD 0.22280906
STRAIGHT_1 0.030963302
5555: 
HIGH_CARD 0.06257144
HIGH_ONE_PAIR 0.10679411
STRAIGHT_1 0.031233769
HIGH_TWO_PAIR 0.016993463
LOW_TWO_PAIR 0.0
LOW_ONE_PAIR 0.09513311
To server: call 

turn
HEARTS 9 

inquire
7777 9880 2000 40 check 
4444 520 0 40 check 
2222 2680 2000 40 check 
6666 7520 2000 40 check 
5555 1000 2000 40 check 
8888 2160 0 40 check 
total pot: 240 

7777: 
STRAIGHT 0.0
THREE_OF_A_KIND 0.0
LOW_ONE_PAIR 0.0
STRAIGHT_1 0.0
HIGH_TWO_PAIR 0.0
HIGH_CARD 0.0
LOW_TWO_PAIR 0.0
HIGH_ONE_PAIR 0.0
4444: 
THREE_OF_A_KIND 0.0
HIGH_TWO_PAIR 0.0
HIGH_ONE_PAIR 0.0
LOW_ONE_PAIR 0.0
HIGH_CARD 0.0
STRAIGHT_1 0.0
LOW_TWO_PAIR 0.0
FLUSH 0.0
2222: 
STRAIGHT 0.0
FULL_HOUSE_UP 0.0
FLUSH_1 0.0
HIGH_TWO_PAIR 0.0
6666: 
LOW_ONE_PAIR 0.0
STRAIGHT_1 0.0
HIGH_CARD 0.0
FLUSH_1 0.0
FLUSH 0.0
THREE_OF_A_KIND 0.0
HIGH_ONE_PAIR 0.0
LOW_TWO_PAIR 0.0
HIGH_TWO_PAIR 0.0
5555: 
HIGH_TWO_PAIR 0.0
HIGH_CARD 0.0
LOW_TWO_PAIR 0.0
LOW_ONE_PAIR 0.0
STRAIGHT_1 0.0
FLUSH_1 0.0
HIGH_ONE_PAIR 0.0
To server: call 

river
SPADES 6 

inquire
7777 9880 2000 40 check 
4444 520 0 40 check 
2222 2680 2000 40 check 
6666 7520 2000 40 check 
5555 1000 2000 40 check 
8888 2160 0 40 check 
total pot: 240 

7777: 
THREE_OF_A_KIND 0.0
STRAIGHT 0.0
LOW_ONE_PAIR 0.0
LOW_TWO_PAIR 0.0
HIGH_ONE_PAIR 0.0
HIGH_TWO_PAIR 0.0
4444: 
HIGH_TWO_PAIR 0.0
LOW_ONE_PAIR 0.0
FLUSH 0.0
THREE_OF_A_KIND 0.0
LOW_TWO_PAIR 0.0
HIGH_ONE_PAIR 0.0
2222: 
STRAIGHT 0.0
HIGH_ONE_PAIR 0.0
LOW_ONE_PAIR 0.0
THREE_OF_A_KIND 0.0
6666: 
LOW_TWO_PAIR 0.0
FLUSH 0.0
THREE_OF_A_KIND 0.0
HIGH_ONE_PAIR 0.0
HIGH_TWO_PAIR 0.0
LOW_ONE_PAIR 0.0
5555: 
FLUSH 0.0
HIGH_ONE_PAIR 0.0
STRAIGHT 0.0
LOW_TWO_PAIR 0.0
HIGH_TWO_PAIR 0.0
LOW_ONE_PAIR 0.0
To server: call 

showdown
common/ 
SPADES 5 
HEARTS 8 
DIAMONDS K 
HEARTS 9 
SPADES 6 
/common 
2: 6666 DIAMONDS 8 SPADES A ONE_PAIR 
1: 2222 DIAMONDS 7 SPADES J STRAIGHT 
4: 4444 DIAMONDS 5 HEARTS Q ONE_PAIR 
3: 7777 HEARTS 6 SPADES 2 ONE_PAIR 
1: 8888 HEARTS 7 HEARTS 4 STRAIGHT 

pot-win
2222: 120 
8888: 120 

seat
button: 6666 7520 2000 
small blind: 2222 2800 2000 
big blind: 4444 520 0 
7777 9880 2000 
8888 2280 0 
5555 1000 2000 

blind
2222: 20 
4444: 40 

hold
CLUBS A 
DIAMONDS A 

inquire
7777 9840 2000 40 call 
4444 480 0 40 blind 
2222 2780 2000 20 blind 
total pot: 100 

7777: 
SMALL_FLUSH 0.084684856
SMALL_PAIR 0.005378834
BIG_FLUSH 0.02845622
HIGH_SINGLE 0.056782335
BIG_PAIR 0.009278178
LOW_SINGLE 0.16666855
To server: call 

notify
7777 9840 2000 40 call 
4444 480 0 40 check 
2222 2760 2000 40 call 
6666 7480 2000 40 call 
5555 960 2000 40 call 
8888 2240 0 40 call 
total pot: 240 

flop
SPADES 4 
SPADES 5 
HEARTS K 

inquire
7777 9840 2000 40 check 
4444 480 0 40 check 
2222 2760 2000 40 check 
6666 7480 2000 40 call 
5555 960 2000 40 call 
8888 2240 0 40 call 
total pot: 240 

7777: 
STRAIGHT_1 0.0
LOW_ONE_PAIR 0.31315523
HIGH_CARD 0.09285714
HIGH_ONE_PAIR 0.17425042
HIGH_TWO_PAIR 0.039329093
THREE_OF_A_KIND 0.0
4444: 
THREE_OF_A_KIND 0.01083333
HIGH_CARD 0.016507935
STRAIGHT_1 0.015999999
LOW_ONE_PAIR 0.068215065
FLUSH_1 0.0
HIGH_TWO_PAIR 0.0
HIGH_ONE_PAIR 0.08796989
2222: 
THREE_OF_A_KIND 0.009895391
HIGH_TWO_PAIR 0.009857765
FLUSH_1 0.011346142
HIGH_CARD 0.21328638
STRAIGHT 0.0
6666: 
STRAIGHT_1 0.029737424
LOW_ONE_PAIR 0.34698042
HIGH_CARD 0.21627028
FLUSH_1 0.0
HIGH_ONE_PAIR 0.16598825
THREE_OF_A_KIND 0.0147652235
5555: 
HIGH_TWO_PAIR 0.01633987
HIGH_CARD 0.060164858
HIGH_ONE_PAIR 0.10268663
STRAIGHT_1 0.030032475
LOW_TWO_PAIR 0.0
LOW_ONE_PAIR 0.09147415
To server: call 

turn
DIAMONDS 4 

inquire
7777 9840 2000 40 check 
4444 480 0 40 check 
2222 2760 2000 40 check 
6666 7480 2000 40 check 
5555 960 2000 40 check 
8888 2240 0 40 check 
total pot: 240 

7777: 
HIGH_TWO_PAIR 0.0
HIGH_ONE_PAIR 0.0
THREE_OF_A_KIND 0.0
LOW_ONE_PAIR 0.0
STRAIGHT_1 0.0
STRAIGHT 0.0
LOW_TWO_PAIR 0.0
HIGH_CARD 0.0
4444: 
LOW_ONE_PAIR 0.0
HIGH_ONE_PAIR 0.0
HIGH_CARD 0.0
STRAIGHT_1 0.0
FLUSH 0.0
LOW_TWO_PAIR 0.0
HIGH_TWO_PAIR 0.0
THREE_OF_A_KIND 0.0
2222: 
STRAIGHT 0.0
STRAIGHT_1 0.11496596
FLUSH_1 0.0
HIGH_TWO_PAIR 0.0
FULL_HOUSE_UP 0.0
6666: 
FLUSH 0.0
HIGH_ONE_PAIR 0.0
HIGH_CARD 0.0
STRAIGHT_1 0.0
LOW_TWO_PAIR 0.0
THREE_OF_A_KIND 0.0
HIGH_TWO_PAIR 0.0
LOW_ONE_PAIR 0.0
FLUSH_1 0.0
5555: 
LOW_TWO_PAIR 0.0
HIGH_ONE_PAIR 0.0
HIGH_TWO_PAIR 0.0
LOW_ONE_PAIR 0.0
FLUSH_1 0.0
STRAIGHT_1 0.0
HIGH_CARD 0.0
To server: call 

river
HEARTS J 

inquire
7777 9840 2000 40 check 
4444 480 0 40 check 
2222 2760 2000 40 check 
6666 7480 2000 40 check 
5555 960 2000 40 check 
8888 2240 0 40 check 
total pot: 240 

7777: 
HIGH_TWO_PAIR 0.0
HIGH_ONE_PAIR 0.0
LOW_TWO_PAIR 0.0
STRAIGHT 0.0
THREE_OF_A_KIND 0.0
LOW_ONE_PAIR 0.0
4444: 
LOW_ONE_PAIR 0.0
FLUSH 0.0
HIGH_ONE_PAIR 0.0
THREE_OF_A_KIND 0.0
HIGH_TWO_PAIR 0.0
LOW_TWO_PAIR 0.0
2222: 
HIGH_ONE_PAIR 0.0
LOW_ONE_PAIR 0.0
STRAIGHT 0.0
THREE_OF_A_KIND 0.0
6666: 
LOW_TWO_PAIR 0.0
THREE_OF_A_KIND 0.0
HIGH_ONE_PAIR 0.0
HIGH_TWO_PAIR 0.0
LOW_ONE_PAIR 0.0
FLUSH 0.0
5555: 
HIGH_TWO_PAIR 0.0
FLUSH 0.0
HIGH_ONE_PAIR 0.0
LOW_ONE_PAIR 0.0
LOW_TWO_PAIR 0.0
STRAIGHT 0.0
To server: call 

showdown
common/ 
SPADES 4 
SPADES 5 
HEARTS K 
DIAMONDS 4 
HEARTS J 
/common 
6: 2222 CLUBS 6 HEARTS 8 ONE_PAIR 
3: 4444 SPADES 9 CLUBS 5 TWO_PAIR 
4: 7777 SPADES 10 CLUBS Q ONE_PAIR 
1: 8888 CLUBS A DIAMONDS A TWO_PAIR 
5: 5555 DIAMONDS 9 SPADES 6 ONE_PAIR 
2: 6666 SPADES J DIAMONDS 5 TWO_PAIR 

pot-win
8888: 240 

seat
button: 2222 2760 2000 
small blind: 4444 480 0 
big blind: 7777 9840 2000 
8888 2480 0 
5555 960 2000 
6666 7480 2000 

blind
4444: 20 
7777: 40 

hold
HEARTS K 
CLUBS 6 

inquire
7777 9800 2000 40 blind 
4444 460 0 20 blind 
total pot: 60 

To server: call 

notify
7777 9800 2000 40 check 
4444 440 0 40 call 
2222 2720 2000 40 call 
6666 7440 2000 40 call 
5555 920 2000 40 call 
8888 2440 0 40 call 
total pot: 240 

flop
HEARTS Q 
SPADES 4 
CLUBS K 

inquire
7777 9800 2000 40 check 
4444 440 0 40 check 
2222 2720 2000 40 call 
6666 7440 2000 40 call 
5555 920 2000 40 call 
8888 2440 0 40 call 
total pot: 240 

7777: 
HIGH_TWO_PAIR 0.03839205
THREE_OF_A_KIND 0.0
HIGH_ONE_PAIR 0.16872428
STRAIGHT_1 0.0
LOW_ONE_PAIR 0.30569407
HIGH_CARD 0.08991228
4444: 
STRAIGHT_1 0.014201183
HIGH_CARD 0.014652014
FLUSH_1 0.0
HIGH_ONE_PAIR 0.078079775
THREE_OF_A_KIND 0.00961538
LOW_ONE_PAIR 0.060545903
HIGH_TWO_PAIR 0.0
2222: 
STRAIGHT 0.0
HIGH_TWO_PAIR 0.009716939
HIGH_CARD 0.21637747
FLUSH_1 0.011184048
THREE_OF_A_KIND 0.009754028
6666: 
HIGH_CARD 0.21017925
HIGH_ONE_PAIR 0.16131335
THREE_OF_A_KIND 0.014349375
STRAIGHT_1 0.02859327
LOW_ONE_PAIR 0.37034288
FLUSH_1 0.0
5555: 
HIGH_TWO_PAIR 0.015180266
STRAIGHT_1 0.027901134
HIGH_ONE_PAIR 0.0953992
LOW_TWO_PAIR 0.0
LOW_ONE_PAIR 0.08498244
HIGH_CARD 0.08815315
To server: call 

turn
DIAMONDS 4 

inquire
7777 9800 2000 40 check 
4444 440 0 40 check 
2222 2720 2000 40 check 
6666 7440 2000 40 check 
5555 920 2000 40 check 
8888 2440 0 40 check 
total pot: 240 

7777: 
HIGH_CARD 0.0
HIGH_TWO_PAIR 0.0
HIGH_ONE_PAIR 0.0
STRAIGHT 0.0
LOW_TWO_PAIR 0.0
STRAIGHT_1 0.0
LOW_ONE_PAIR 0.0
THREE_OF_A_KIND 0.0
4444: 
HIGH_CARD 0.0
LOW_TWO_PAIR 0.0
HIGH_ONE_PAIR 0.0
HIGH_TWO_PAIR 0.0
FLUSH 0.0
THREE_OF_A_KIND 0.0
LOW_ONE_PAIR 0.0
STRAIGHT_1 0.0
2222: 
STRAIGHT 0.0
HIGH_TWO_PAIR 0.0
FLUSH_1 0.0
FULL_HOUSE_UP 0.0
STRAIGHT_1 0.11663216
6666: 
HIGH_CARD 0.0
STRAIGHT_1 0.0
FLUSH_1 0.0
HIGH_ONE_PAIR 0.0
FLUSH 0.0
LOW_TWO_PAIR 0.0
HIGH_TWO_PAIR 0.0
THREE_OF_A_KIND 0.0
LOW_ONE_PAIR 0.0
5555: 
HIGH_ONE_PAIR 0.0
HIGH_TWO_PAIR 0.0
FLUSH_1 0.0
HIGH_CARD 0.0
LOW_TWO_PAIR 0.0
STRAIGHT_1 0.0
LOW_ONE_PAIR 0.0
To server: call 

river
SPADES K 

inquire
7777 9360 2000 480 call 
4444 0 0 480 all_in 
2222 2720 2000 40 check 
6666 7440 2000 40 check 
5555 920 2000 40 check 
8888 2440 0 40 check 
total pot: 1120 

7777: 
STRAIGHT 0.0
HIGH_ONE_PAIR 0.0
THREE_OF_A_KIND 0.0
LOW_ONE_PAIR 0.0
LOW_TWO_PAIR 0.0
HIGH_TWO_PAIR 0.0
4444: 
FULL_HOUSE_UP 1.0
2222: 
HIGH_ONE_PAIR 0.0
LOW_ONE_PAIR 0.0
THREE_OF_A_KIND 0.0
STRAIGHT 0.0
6666: 
LOW_TWO_PAIR 0.0
FLUSH 0.0
LOW_ONE_PAIR 0.0
HIGH_ONE_PAIR 0.0
THREE_OF_A_KIND 0.0
HIGH_TWO_PAIR 0.0
5555: 
HIGH_ONE_PAIR 0.0
STRAIGHT 0.0
LOW_ONE_PAIR 0.0
LOW_TWO_PAIR 0.0
FLUSH 0.0
HIGH_TWO_PAIR 0.0
To server: raise 1600 

notify
7777 9360 2000 480 fold 
4444 0 0 480 all_in 
2222 680 2000 2080 call 
6666 7440 2000 40 fold 
5555 0 2000 960 all_in 
8888 400 0 2080 raise 
total pot: 6120 

showdown
common/ 
HEARTS Q 
SPADES 4 
CLUBS K 
DIAMONDS 4 
SPADES K 
/common 
3: 4444 SPADES 10 HEARTS 4 FULL_HOUSE 
2: 8888 HEARTS K CLUBS 6 FULL_HOUSE 
1: 5555 DIAMONDS K SPADES Q FULL_HOUSE 
3: 2222 CLUBS 4 HEARTS 5 FULL_HOUSE 

pot-win
5555: 3880 
8888: 2240 

seat
button: 7777 9360 2000 
small blind: 8888 2640 0 
big blind: 5555 3880 2000 
6666 7440 2000 
2222 680 2000 

blind
8888: 20 
5555: 40 

hold
CLUBS K 
SPADES 10 

inquire
7777 9320 2000 40 call 
2222 640 2000 40 call 
6666 7400 2000 40 call 
5555 3840 2000 40 blind 
8888 2620 0 20 blind 
total pot: 180 

7777: 
BIG_PAIR 0.009521591
SMALL_FLUSH 0.08690654
SMALL_PAIR 0.0055199433
LOW_SINGLE 0.17104104
HIGH_SINGLE 0.0848566
BIG_FLUSH 0.026209675
2222: 
LOW_SINGLE 0.61240166
SMALL_FLUSH 0.018925356
SMALL_PAIR 0.0039082523
6666: 
HIGH_SINGLE 0.038476273
LOW_SINGLE 0.41593254
BIG_PAIR 0.014134582
BIG_FLUSH 0.025137763
SMALL_FLUSH 0.18007845
To server: call 

flop
SPADES K 
SPADES 4 
HEARTS 8 

inquire
7777 9320 2000 40 call 
2222 640 2000 40 call 
6666 7400 2000 40 call 
5555 3840 2000 40 check 
8888 2600 0 40 call 
total pot: 200 

7777: 
STRAIGHT_1 0.0
LOW_ONE_PAIR 0.32137072
HIGH_ONE_PAIR 0.16049382
THREE_OF_A_KIND 0.0
HIGH_CARD 0.08552632
HIGH_TWO_PAIR 0.040360875
2222: 
HIGH_CARD 0.77491015
THREE_OF_A_KIND 0.0027035624
FLUSH_1 0.0030999284
6666: 
STRAIGHT_1 0.028440364
FLUSH_1 0.0
THREE_OF_A_KIND 0.014426524
LOW_ONE_PAIR 0.37233397
HIGH_ONE_PAIR 0.16218065
HIGH_CARD 0.21130924
5555: 
HIGH_ONE_PAIR 0.31635043
STRAIGHT_1 0.08045416
LOW_ONE_PAIR 0.1878359
HIGH_CARD 0.1386392
LOW_TWO_PAIR 0.0
HIGH_TWO_PAIR 0.020427
To server: call 

turn
CLUBS 2 

inquire
7777 9320 2000 40 check 
2222 640 2000 40 check 
6666 7400 2000 40 check 
5555 3840 2000 40 check 
8888 2600 0 40 check 
total pot: 200 

7777: 
HIGH_CARD 0.0
LOW_TWO_PAIR 0.0
HIGH_TWO_PAIR 0.0
THREE_OF_A_KIND 0.0
HIGH_ONE_PAIR 0.0
STRAIGHT_1 0.0
STRAIGHT 0.0
LOW_ONE_PAIR 0.0
2222: 
HIGH_TWO_PAIR 0.0
FULL_HOUSE_UP 0.0
STRAIGHT_1 0.43222502
STRAIGHT 0.0
FLUSH_1 0.0
THREE_OF_A_KIND 0.07399362
6666: 
LOW_ONE_PAIR 0.0
STRAIGHT_1 0.0
FLUSH 0.0
THREE_OF_A_KIND 0.0
HIGH_CARD 0.0
HIGH_TWO_PAIR 0.0
FLUSH_1 0.0
LOW_TWO_PAIR 0.0
HIGH_ONE_PAIR 0.0
5555: 
HIGH_TWO_PAIR 0.0
FLUSH_1 0.0
LOW_TWO_PAIR 0.0
STRAIGHT_1 0.0
HIGH_ONE_PAIR 0.0
HIGH_CARD 0.0
LOW_ONE_PAIR 0.0
To server: call 

river
DIAMONDS J 

inquire
7777 9320 2000 40 check 
2222 640 2000 40 check 
6666 7400 2000 40 check 
5555 3840 2000 40 check 
8888 2600 0 40 check 
total pot: 200 

7777: 
HIGH_TWO_PAIR 0.0
LOW_ONE_PAIR 0.0
HIGH_ONE_PAIR 0.0
LOW_TWO_PAIR 0.0
THREE_OF_A_KIND 0.0
STRAIGHT 0.0
2222: 
STRAIGHT 0.0
LOW_ONE_PAIR 0.0
HIGH_TWO_PAIR 0.07992294
HIGH_ONE_PAIR 0.0
HIGH_CARD 0.17112298
THREE_OF_A_KIND 0.0
6666: 
THREE_OF_A_KIND 0.0
HIGH_TWO_PAIR 0.0
FLUSH 0.0
HIGH_ONE_PAIR 0.0
LOW_TWO_PAIR 0.0
LOW_ONE_PAIR 0.0
5555: 
STRAIGHT 0.0
HIGH_ONE_PAIR 0.0
FLUSH 0.0
LOW_TWO_PAIR 0.0
HIGH_TWO_PAIR 0.0
LOW_ONE_PAIR 0.0
To server: call 

showdown
common/ 
SPADES K 
SPADES 4 
HEARTS 8 
CLUBS 2 
DIAMONDS J 
/common 
2: 8888 CLUBS K SPADES 10 ONE_PAIR 
1: 5555 CLUBS 4 DIAMONDS 4 THREE_OF_A_KIND 
3: 6666 SPADES J HEARTS A ONE_PAIR 
5: 2222 SPADES 2 HEARTS Q ONE_PAIR 
4: 7777 CLUBS 8 SPADES Q ONE_PAIR 

pot-win
5555: 200 

seat
button: 8888 2600 0 
small blind: 5555 4040 2000 
big blind: 6666 7400 2000 
2222 640 2000 
7777 9320 2000 

blind
5555: 20 
6666: 40 

hold
CLUBS 5 
DIAMONDS A 

inquire
7777 9280 2000 40 call 
2222 600 2000 40 call 
6666 7360 2000 40 blind 
5555 4020 2000 20 blind 
total pot: 140 

7777: 
BIG_PAIR 0.009304011
HIGH_SINGLE 0.08291753
LOW_SINGLE 0.17988786
BIG_FLUSH 0.025392327
SMALL_PAIR 0.0053938064
SMALL_FLUSH 0.08492061
2222: 
LOW_SINGLE 0.6583378
SMALL_PAIR 0.0036047888
SMALL_FLUSH 0.017455857
To server: call 

notify
7777 9280 2000 40 call 
2222 600 2000 40 call 
6666 7360 2000 40 check 
5555 4000 2000 40 call 
8888 2560 0 40 call 
total pot: 200 

flop
CLUBS 8 
CLUBS J 
DIAMONDS 2 

inquire
7777 9280 2000 40 check 
2222 600 2000 40 check 
6666 7360 2000 40 check 
5555 4000 2000 40 check 
8888 2560 0 40 call 
total pot: 200 

7777: 
HIGH_ONE_PAIR 0.15548882
LOW_ONE_PAIR 0.34031606
THREE_OF_A_KIND 0.0
HIGH_TWO_PAIR 0.03943858
STRAIGHT_1 0.0
HIGH_CARD 0.08285917
2222: 
THREE_OF_A_KIND 0.0026551615
HIGH_CARD 0.80451536
6666: 
FLUSH_1 0.0
STRAIGHT_1 0.02737496
HIGH_ONE_PAIR 0.15779738
LOW_ONE_PAIR 0.36227092
THREE_OF_A_KIND 0.014036617
HIGH_CARD 0.23762763
5555: 
LOW_ONE_PAIR 0.17493029
HIGH_TWO_PAIR 0.019023523
STRAIGHT_1 0.074926406
LOW_TWO_PAIR 0.0
HIGH_CARD 0.12911373
THREE_OF_A_KIND 0.0
HIGH_ONE_PAIR 0.294615
To server: call 

turn
SPADES J 

inquire
7777 9280 2000 40 check 
2222 600 2000 40 check 
6666 7360 2000 40 check 
5555 4000 2000 40 check 
8888 2560 0 40 check 
total pot: 200 

7777: 
LOW_ONE_PAIR 0.0
HIGH_CARD 0.0
LOW_TWO_PAIR 0.0
THREE_OF_A_KIND 0.0
HIGH_TWO_PAIR 0.0
STRAIGHT 0.0
HIGH_ONE_PAIR 0.0
STRAIGHT_1 0.0
2222: 
STRAIGHT_1 0.70416665
THREE_OF_A_KIND 0.12054794
6666: 
HIGH_TWO_PAIR 0.0
HIGH_CARD 0.0
LOW_ONE_PAIR 0.0
THREE_OF_A_KIND 0.0
FLUSH_1 0.0
STRAIGHT_1 0.0
FLUSH 0.0
HIGH_ONE_PAIR 0.0
LOW_TWO_PAIR 0.0
5555: 
LOW_TWO_PAIR 0.0
LOW_ONE_PAIR 0.0
STRAIGHT_1 0.0
HIGH_TWO_PAIR 0.0
HIGH_CARD 0.0
THREE_OF_A_KIND 0.0
HIGH_ONE_PAIR 0.0
FLUSH_1 0.0
To server: call 

river
HEARTS 9 

inquire
7777 9280 2000 40 check 
2222 600 2000 40 check 
6666 7360 2000 40 check 
5555 4000 2000 40 check 
8888 2560 0 40 check 
total pot: 200 

7777: 
STRAIGHT 0.0
LOW_ONE_PAIR 0.0
LOW_TWO_PAIR 0.0
THREE_OF_A_KIND 0.0
HIGH_TWO_PAIR 0.0
HIGH_ONE_PAIR 0.0
2222: 
STRAIGHT 0.0
LOW_ONE_PAIR 0.0
HIGH_CARD 0.17777778
HIGH_ONE_PAIR 0.0
HIGH_TWO_PAIR 0.08303104
THREE_OF_A_KIND 0.0
6666: 
LOW_TWO_PAIR 0.0
HIGH_TWO_PAIR 0.0
FLUSH 0.0
HIGH_ONE_PAIR 0.0
LOW_ONE_PAIR 0.0
THREE_OF_A_KIND 0.0
5555: 
LOW_ONE_PAIR 0.0
FLUSH 0.0
HIGH_ONE_PAIR 0.0
LOW_TWO_PAIR 0.0
HIGH_TWO_PAIR 0.0
STRAIGHT 0.0
THREE_OF_A_KIND 0.0
To server: call 

showdown
common/ 
CLUBS 8 
CLUBS J 
DIAMONDS 2 
SPADES J 
HEARTS 9 
/common 
4: 5555 SPADES 4 DIAMONDS Q ONE_PAIR 
3: 6666 SPADES 7 DIAMONDS K ONE_PAIR 
5: 2222 HEARTS 6 CLUBS 10 ONE_PAIR 
1: 7777 HEARTS K SPADES K TWO_PAIR 
2: 8888 CLUBS 5 DIAMONDS A ONE_PAIR 

pot-win
7777: 200 

seat
button: 5555 4000 2000 
small blind: 6666 7360 2000 
big blind: 2222 600 2000 
7777 9480 2000 
8888 2560 0 

blind
6666: 20 
2222: 40 

hold
CLUBS 6 
HEARTS Q 

inquire
7777 9440 2000 40 call 
2222 560 2000 40 blind 
6666 7340 2000 20 blind 
total pot: 100 

7777: 
HIGH_SINGLE 0.07937286
SMALL_FLUSH 0.08129031
BIG_FLUSH 0.025148557
LOW_SINGLE 0.17219777
SMALL_PAIR 0.005163224
BIG_PAIR 0.01845116
To server: call 

notify
7777 9440 2000 40 call 
2222 560 2000 40 check 
6666 7320 2000 40 call 
5555 3960 2000 40 call 
8888 2520 0 40 call 
total pot: 200 

flop
HEARTS K 
HEARTS 3 
DIAMONDS 3 

inquire
7777 9440 2000 40 check 
2222 560 2000 40 check 
6666 7320 2000 40 check 
5555 3960 2000 40 call 
8888 2520 0 40 call 
total pot: 200 

7777: 
LOW_ONE_PAIR 0.32576776
HIGH_ONE_PAIR 0.15399611
THREE_OF_A_KIND 0.0
HIGH_TWO_PAIR 0.037752606
STRAIGHT_1 0.0
HIGH_CARD 0.08206372
2222: 
HIGH_CARD 0.4818712
HIGH_ONE_PAIR 0.114015974
FLUSH_1 0.0018234849
THREE_OF_A_KIND 0.0015903297
HIGH_TWO_PAIR 0.0015842848
6666: 
HIGH_ONE_PAIR 0.15369701
HIGH_CARD 0.2700334
THREE_OF_A_KIND 0.013671875
STRAIGHT_1 0.026376147
FLUSH_1 0.0
LOW_ONE_PAIR 0.35285726
5555: 
LOW_TWO_PAIR 0.0
HIGH_ONE_PAIR 0.28880933
THREE_OF_A_KIND 0.0
STRAIGHT_1 0.07344992
LOW_ONE_PAIR 0.17148313
HIGH_CARD 0.16531518
HIGH_TWO_PAIR 0.018648649
To server: call 

turn
CLUBS 8 

inquire
7777 9440 2000 40 check 
2222 560 2000 40 check 
6666 7320 2000 40 check 
5555 3960 2000 40 check 
8888 2520 0 40 check 
total pot: 200 

7777: 
STRAIGHT 0.0
HIGH_ONE_PAIR 0.0
LOW_TWO_PAIR 0.0
HIGH_TWO_PAIR 0.0
LOW_ONE_PAIR 0.0
STRAIGHT_1 0.0
THREE_OF_A_KIND 0.0
HIGH_CARD 0.0
2222: 
THREE_OF_A_KIND 0.12858447
STRAIGHT_1 0.7511111
6666: 
STRAIGHT_1 0.0
HIGH_TWO_PAIR 0.0
LOW_ONE_PAIR 0.0
FLUSH_1 0.0
HIGH_ONE_PAIR 0.0
THREE_OF_A_KIND 0.0
LOW_TWO_PAIR 0.0
FLUSH 0.0
HIGH_CARD 0.0
5555: 
LOW_TWO_PAIR 0.0
HIGH_TWO_PAIR 0.0
LOW_ONE_PAIR 0.0
FLUSH_1 0.0
THREE_OF_A_KIND 0.0
HIGH_ONE_PAIR 0.0
HIGH_CARD 0.0
STRAIGHT_1 0.0
To server: call 

river
SPADES 5 

inquire
7777 9440 2000 40 check 
2222 560 2000 40 check 
6666 7320 2000 40 check 
5555 3960 2000 40 check 
8888 2520 0 40 check 
total pot: 200 

7777: 
HIGH_ONE_PAIR 0.0
LOW_TWO_PAIR 0.0
THREE_OF_A_KIND 0.0
STRAIGHT 0.0
LOW_ONE_PAIR 0.0
HIGH_TWO_PAIR 0.0
2222: 
STRAIGHT 0.0
THREE_OF_A_KIND 0.0
HIGH_ONE_PAIR 0.0
LOW_ONE_PAIR 0.0
HIGH_TWO_PAIR 0.0866411
HIGH_CARD 0.18550725
6666: 
FLUSH 0.0
LOW_TWO_PAIR 0.0
HIGH_ONE_PAIR 0.0
HIGH_TWO_PAIR 0.0
LOW_ONE_PAIR 0.0
THREE_OF_A_KIND 0.0
5555: 
STRAIGHT 0.0
HIGH_ONE_PAIR 0.0
FLUSH 0.0
THREE_OF_A_KIND 0.0
LOW_ONE_PAIR 0.0
HIGH_TWO_PAIR 0.0
LOW_TWO_PAIR 0.0
To server: call 

showdown
common/ 
HEARTS K 
HEARTS 3 
DIAMONDS 3 
CLUBS 8 
SPADES 5 
/common 
5: 6666 CLUBS J DIAMONDS 6 ONE_PAIR 
1: 2222 SPADES 10 DIAMONDS K TWO_PAIR 
2: 7777 DIAMONDS A CLUBS Q ONE_PAIR 
4: 8888 CLUBS 6 HEARTS Q ONE_PAIR 
3: 5555 HEARTS 9 DIAMONDS Q ONE_PAIR 

pot-win
2222: 200 

seat
button: 6666 7320 2000 
small blind: 2222 760 2000 
big blind: 7777 9440 2000 
8888 2520 0 
5555 3960 2000 

blind
2222: 20 
7777: 40 

hold
CLUBS 2 
SPADES A 

inquire
7777 9400 2000 40 blind 
2222 740 2000 20 blind 
total pot: 60 

To server: call 

notify
7777 9400 2000 40 fold 
2222 720 2000 40 call 
6666 7280 2000 40 call 
5555 3920 2000 40 call 
8888 2480 0 40 call 
total pot: 200 

flop
HEARTS 9 
SPADES 7 
SPADES Q 

inquire
7777 9400 2000 40 fold 
2222 720 2000 40 check 
6666 7280 2000 40 call 
5555 3920 2000 40 call 
8888 2480 0 40 call 
total pot: 200 

2222: 
HIGH_TWO_PAIR 0.0024911494
THREE_OF_A_KIND 0.0025006593
FLUSH_1 0.0028672754
HIGH_CARD 0.75770086
6666: 
STRAIGHT_1 0.025437864
HIGH_ONE_PAIR 0.14985394
LOW_ONE_PAIR 0.38435522
THREE_OF_A_KIND 0.013330021
FLUSH_1 0.0
HIGH_CARD 0.26042745
5555: 
LOW_TWO_PAIR 0.0
THREE_OF_A_KIND 0.0
HIGH_ONE_PAIR 0.28339154
LOW_ONE_PAIR 0.19501646
STRAIGHT_1 0.07207207
HIGH_CARD 0.16221404
HIGH_TWO_PAIR 0.018298816
To server: call 

turn
CLUBS 7 

inquire
7777 9400 2000 40 fold 
2222 720 2000 40 check 
6666 7280 2000 40 check 
5555 3920 2000 40 check 
8888 2480 0 40 check 
total pot: 200 

2222: 
FULL_HOUSE_UP 0.0
FLUSH_1 0.0
HIGH_TWO_PAIR 0.0
STRAIGHT 0.0
THREE_OF_A_KIND 0.06344628
STRAIGHT_1 0.37061405
6666: 
HIGH_ONE_PAIR 0.0
HIGH_TWO_PAIR 0.0
STRAIGHT_1 0.0
THREE_OF_A_KIND 0.0
HIGH_CARD 0.0
FLUSH_1 0.0
LOW_TWO_PAIR 0.0
FLUSH 0.0
LOW_ONE_PAIR 0.0
5555: 
HIGH_ONE_PAIR 0.0
LOW_ONE_PAIR 0.0
HIGH_TWO_PAIR 0.0
STRAIGHT_1 0.0
FLUSH_1 0.0
HIGH_CARD 0.0
THREE_OF_A_KIND 0.0
LOW_TWO_PAIR 0.0
To server: call 

river
DIAMONDS K 

inquire
7777 9400 2000 40 fold 
2222 720 2000 40 check 
6666 7280 2000 40 check 
5555 3920 2000 40 check 
8888 2480 0 40 check 
total pot: 200 

2222: 
THREE_OF_A_KIND 0.0
HIGH_ONE_PAIR 0.0
HIGH_TWO_PAIR 0.08100409
STRAIGHT 0.0
HIGH_CARD 0.14333707
LOW_ONE_PAIR 0.0
6666: 
LOW_ONE_PAIR 0.0
LOW_TWO_PAIR 0.0
HIGH_TWO_PAIR 0.0
THREE_OF_A_KIND 0.0
HIGH_ONE_PAIR 0.0
FLUSH 0.0
5555: 
THREE_OF_A_KIND 0.0
LOW_ONE_PAIR 0.0
FLUSH 0.0
HIGH_ONE_PAIR 0.0
LOW_TWO_PAIR 0.0
STRAIGHT 0.0
HIGH_TWO_PAIR 0.0
To server: call 

showdown
common/ 
HEARTS 9 
SPADES 7 
SPADES Q 
CLUBS 7 
DIAMONDS K 
/common 
2: 2222 HEARTS 8 HEARTS 6 ONE_PAIR 
1: 8888 CLUBS 2 SPADES A ONE_PAIR 
2: 5555 SPADES 3 SPADES 4 ONE_PAIR 
1: 6666 CLUBS A CLUBS 5 ONE_PAIR 

pot-win
8888: 100 
6666: 100 

seat
button: 2222 720 2000 
small blind: 7777 9400 2000 
big blind: 8888 2580 0 
5555 3920 2000 
6666 7380 2000 

blind
7777: 20 
8888: 40 

hold
DIAMONDS K 
SPADES 2 

inquire
7777 9360 2000 40 call 
2222 680 2000 40 call 
6666 7340 2000 40 call 
5555 3880 2000 40 call 
8888 2540 0 40 blind 
total pot: 200 

7777: 
BIG_PAIR 0.018131059
SMALL_PAIR 0.00507365
SMALL_FLUSH 0.07988004
LOW_SINGLE 0.1692104
BIG_FLUSH 0.02429694
HIGH_SINGLE 0.10253887
2222: 
SMALL_FLUSH 0.037101153
SMALL_PAIR 0.0038994115
LOW_SINGLE 0.5795726
6666: 
BIG_FLUSH 0.02244589
LOW_SINGLE 0.44077742
BIG_PAIR 0.012620984
HIGH_SINGLE 0.059545252
SMALL_FLUSH 0.18693325
5555: 
HIGH_SINGLE 0.05878733
SMALL_PAIR 0.040705893
BIG_PAIR 0.04391718
SMALL_FLUSH 0.07451659
LOW_SINGLE 0.26987195
BIG_FLUSH 0.007653061
To server: call 

flop
DIAMONDS 3 
DIAMONDS 4 
SPADES 5 

inquire
7777 9360 2000 40 check 
2222 680 2000 40 call 
6666 7340 2000 40 call 
5555 3880 2000 40 call 
8888 2540 0 40 check 
total pot: 200 

7777: 
LOW_ONE_PAIR 0.36422104
THREE_OF_A_KIND 0.0
STRAIGHT_1 0.0
HIGH_CARD 0.07928476
HIGH_TWO_PAIR 0.03709765
HIGH_ONE_PAIR 0.14878127
2222: 
FLUSH_1 0.0027163646
THREE_OF_A_KIND 0.002369044
HIGH_TWO_PAIR 0.0023600357
HIGH_CARD 0.7178219
6666: 
STRAIGHT_1 0.024892064
LOW_ONE_PAIR 0.37610844
THREE_OF_A_KIND 0.012832775
FLUSH_1 0.0
HIGH_CARD 0.28465545
HIGH_ONE_PAIR 0.14426398
5555: 
HIGH_ONE_PAIR 0.27833098
LOW_ONE_PAIR 0.19153403
THREE_OF_A_KIND 0.0
LOW_TWO_PAIR 0.0
HIGH_CARD 0.15931734
FLUSH_1 0.027777778
STRAIGHT_1 0.07078507
HIGH_TWO_PAIR 0.017972052
To server: call 

turn
HEARTS 6 

inquire
7777 9360 2000 40 check 
2222 680 2000 40 check 
6666 7340 2000 40 check 
5555 3880 2000 40 check 
8888 2540 0 40 check 
total pot: 200 

7777: 
HIGH_TWO_PAIR 0.0
HIGH_ONE_PAIR 0.0
THREE_OF_A_KIND 0.0
HIGH_CARD 0.0
STRAIGHT_1 0.0
LOW_TWO_PAIR 0.0
STRAIGHT 0.0
LOW_ONE_PAIR 0.0
2222: 
STRAIGHT 0.0
FULL_HOUSE_UP 0.0
HIGH_TWO_PAIR 0.0
STRAIGHT_1 0.39120367
FLUSH_1 0.0
THREE_OF_A_KIND 0.06697108
6666: 
STRAIGHT_1 0.0
LOW_TWO_PAIR 0.0
FLUSH 0.0
HIGH_ONE_PAIR 0.0
THREE_OF_A_KIND 0.0
HIGH_CARD 0.0
LOW_ONE_PAIR 0.0
HIGH_TWO_PAIR 0.0
FLUSH_1 0.0
5555: 
HIGH_TWO_PAIR 0.0
THREE_OF_A_KIND 0.0
LOW_TWO_PAIR 0.0
FLUSH_1 0.0
STRAIGHT_1 0.0
HIGH_ONE_PAIR 0.0
LOW_ONE_PAIR 0.0
HIGH_CARD 0.0
To server: call 

river
SPADES 9 

inquire
7777 9360 2000 40 check 
2222 680 2000 40 check 
6666 7340 2000 40 check 
5555 3880 2000 40 check 
8888 2540 0 40 check 
total pot: 200 

7777: 
LOW_ONE_PAIR 0.0
THREE_OF_A_KIND 0.0
HIGH_TWO_PAIR 0.0
STRAIGHT 0.0
HIGH_ONE_PAIR 0.0
LOW_TWO_PAIR 0.0
2222: 
LOW_ONE_PAIR 0.0
HIGH_TWO_PAIR 0.08372297
THREE_OF_A_KIND 0.0
HIGH_ONE_PAIR 0.0
HIGH_CARD 0.14814813
STRAIGHT 0.0
6666: 
LOW_TWO_PAIR 0.0
THREE_OF_A_KIND 0.0
HIGH_ONE_PAIR 0.0
FLUSH 0.0
HIGH_TWO_PAIR 0.0
LOW_ONE_PAIR 0.0
5555: 
STRAIGHT 0.0
THREE_OF_A_KIND 0.0
FLUSH 0.0
HIGH_TWO_PAIR 0.0
HIGH_ONE_PAIR 0.0
LOW_ONE_PAIR 0.0
LOW_TWO_PAIR 0.0
To server: call 

showdown
common/ 
DIAMONDS 3 
DIAMONDS 4 
SPADES 5 
HEARTS 6 
SPADES 9 
/common 
3: 7777 DIAMONDS 5 HEARTS J ONE_PAIR 
2: 8888 DIAMONDS K SPADES 2 STRAIGHT 
4: 6666 HEARTS 4 CLUBS K ONE_PAIR 
1: 2222 DIAMONDS 7 DIAMONDS Q STRAIGHT 

pot-win
2222: 200 

seat
button: 7777 9360 2000 
small blind: 8888 2540 0 
big blind: 5555 3880 2000 
6666 7340 2000 
2222 880 2000 

blind
8888: 20 
5555: 40 

hold
HEARTS 2 
DIAMONDS 7 

inquire
7777 9320 2000 40 call 
2222 840 2000 40 call 
6666 7300 2000 40 call 
5555 3840 2000 40 blind 
8888 2520 0 20 blind 
total pot: 180 

7777: 
SMALL_PAIR 0.004967949
BIG_FLUSH 0.023588708
BIG_PAIR 0.017753327
HIGH_SINGLE 0.10040264
SMALL_FLUSH 0.07821588
LOW_SINGLE 0.17774351
2222: 
SMALL_PAIR 0.0046760226
SMALL_FLUSH 0.067551084
LOW_SINGLE 0.46524876
6666: 
SMALL_FLUSH 0.18273106
LOW_SINGLE 0.45739228
BIG_PAIR 0.012337269
BIG_FLUSH 0.021941314
HIGH_SINGLE 0.058206696
To server: fold 

flop
DIAMONDS A 
SPADES 5 
CLUBS A 

notify
7777 9320 2000 40 call 
2222 840 2000 40 call 
6666 7300 2000 40 call 
5555 3840 2000 40 fold 
8888 2520 0 20 fold 
total pot: 180 

notify
7777 7320 2000 2040 raise 
2222 840 2000 40 check 
6666 7300 2000 40 check 
5555 3840 2000 40 fold 
8888 2520 0 20 fold 
total pot: 2180 

notify
7777 7320 2000 2040 raise 
2222 0 2000 880 all_in 
6666 7300 2000 40 fold 
5555 3840 2000 40 fold 
8888 2520 0 20 fold 
total pot: 3020 

turn
HEARTS K 

river
SPADES J 

showdown
common/ 
DIAMONDS A 
SPADES 5 
CLUBS A 
HEARTS K 
SPADES J 
/common 
2: 2222 HEARTS A HEARTS 7 THREE_OF_A_KIND 
1: 7777 DIAMONDS 5 HEARTS 5 FULL_HOUSE 

pot-win
7777: 3020 

seat
button: 8888 2520 0 
small blind: 5555 3840 2000 
big blind: 6666 7300 2000 
2222 2000 0 
7777 10340 2000 

blind
5555: 20 
6666: 40 

hold
SPADES 3 
SPADES Q 

inquire
7777 10300 2000 40 call 
2222 1960 0 40 call 
6666 7260 2000 40 blind 
5555 3820 2000 20 blind 
total pot: 140 

7777: 
BIG_PAIR 0.015678741
SMALL_FLUSH 0.06907586
HIGH_SINGLE 0.08866998
LOW_SINGLE 0.15697312
BIG_FLUSH 0.02339954
SMALL_PAIR 0.014640352
2222: 
LOW_SINGLE 0.20091851
SMALL_PAIR 0.010430526
SMALL_FLUSH 0.19276966
To server: call 

notify
7777 10300 2000 40 call 
2222 1960 0 40 call 
6666 7260 2000 40 check 
5555 3800 2000 40 call 
8888 2480 0 40 call 
total pot: 200 

flop
DIAMONDS 5 
HEARTS 9 
HEARTS 4 

inquire
7777 10300 2000 40 check 
2222 1960 0 40 check 
6666 7260 2000 40 check 
5555 3800 2000 40 check 
8888 2480 0 40 call 
total pot: 200 

7777: 
HIGH_ONE_PAIR 0.15956791
HIGH_CARD 0.085032895
THREE_OF_A_KIND 0.0
STRAIGHT_1 0.0
LOW_ONE_PAIR 0.36444739
HIGH_TWO_PAIR 0.032882012
2222: 
STRAIGHT 0.0
HIGH_TWO_PAIR 0.006337136
FLUSH_1 0.094936855
HIGH_CARD 0.30494547
6666: 
FLUSH_1 0.0
STRAIGHT_1 0.02391874
HIGH_CARD 0.2735249
THREE_OF_A_KIND 0.01260274
HIGH_ONE_PAIR 0.14167796
LOW_ONE_PAIR 0.38981768
5555: 
STRAIGHT_1 0.072259754
LOW_ONE_PAIR 0.19552432
LOW_TWO_PAIR 0.0
HIGH_CARD 0.16263646
THREE_OF_A_KIND 0.0
FLUSH_1 0.027210884
HIGH_ONE_PAIR 0.28412956
HIGH_TWO_PAIR 0.018346472
To server: call 

turn
SPADES 4 

inquire
7777 10300 2000 40 check 
2222 1960 0 40 check 
6666 7260 2000 40 check 
5555 3800 2000 40 check 
8888 2480 0 40 check 
total pot: 200 

7777: 
LOW_ONE_PAIR 0.0
STRAIGHT_1 0.0
LOW_TWO_PAIR 0.0
HIGH_ONE_PAIR 0.0
HIGH_CARD 0.0
THREE_OF_A_KIND 0.0
STRAIGHT 0.0
HIGH_TWO_PAIR 0.0
2222: 
FLUSH_1 0.0
FULL_HOUSE_UP 0.0
STRAIGHT_1 0.14695652
HIGH_TWO_PAIR 0.0
STRAIGHT 0.0
6666: 
HIGH_ONE_PAIR 0.0
HIGH_CARD 0.0
THREE_OF_A_KIND 0.0
FLUSH 0.0
STRAIGHT_1 0.0
FLUSH_1 0.0
HIGH_TWO_PAIR 0.0
LOW_ONE_PAIR 0.0
LOW_TWO_PAIR 0.0
5555: 
LOW_TWO_PAIR 0.0
FLUSH_1 0.0
THREE_OF_A_KIND 0.0
LOW_ONE_PAIR 0.0
HIGH_CARD 0.0
HIGH_TWO_PAIR 0.0
STRAIGHT_1 0.0
HIGH_ONE_PAIR 0.0
To server: call 

river
CLUBS 8 

inquire
7777 10300 2000 40 check 
2222 1960 0 40 check 
6666 7260 2000 40 check 
5555 3800 2000 40 check 
8888 2480 0 40 check 
total pot: 200 

7777: 
HIGH_ONE_PAIR 0.0
HIGH_TWO_PAIR 0.0
STRAIGHT 0.0
LOW_TWO_PAIR 0.0
THREE_OF_A_KIND 0.0
LOW_ONE_PAIR 0.0
2222: 
STRAIGHT 0.0
HIGH_ONE_PAIR 0.0
LOW_ONE_PAIR 0.0
6666: 
HIGH_ONE_PAIR 0.0
LOW_TWO_PAIR 0.0
HIGH_TWO_PAIR 0.0
THREE_OF_A_KIND 0.0
LOW_ONE_PAIR 0.0
FLUSH 0.0
5555: 
LOW_ONE_PAIR 0.0
HIGH_TWO_PAIR 0.0
HIGH_ONE_PAIR 0.0
LOW_TWO_PAIR 0.0
STRAIGHT 0.0
FLUSH 0.0
THREE_OF_A_KIND 0.0
To server: call 

showdown
common/ 
DIAMONDS 5 
HEARTS 9 
HEARTS 4 
SPADES 4 
CLUBS 8 
/common 
3: 5555 HEARTS Q HEARTS 2 ONE_PAIR 
4: 6666 DIAMONDS 7 SPADES 10 ONE_PAIR 
1: 2222 CLUBS 5 HEARTS 7 TWO_PAIR 
2: 7777 CLUBS 10 DIAMONDS Q ONE_PAIR 
3: 8888 SPADES 3 SPADES Q ONE_PAIR 

pot-win
2222: 200 

seat
button: 5555 3800 2000 
small blind: 6666 7260 2000 
big blind: 2222 2160 0 
7777 10300 2000 
8888 2480 0 

blind
6666: 20 
2222: 40 

hold
CLUBS 2 
CLUBS A 

inquire
7777 10260 2000 40 call 
2222 2120 0 40 blind 
6666 7240 2000 20 blind 
total pot: 100 

7777: 
BIG_PAIR 0.015364877
SMALL_PAIR 0.014347275
HIGH_SINGLE 0.10924276
SMALL_FLUSH 0.06769308
LOW_SINGLE 0.15383075
BIG_FLUSH 0.022931116
To server: call 

notify
7777 10260 2000 40 call 
2222 2120 0 40 check 
6666 7220 2000 40 call 
5555 3760 2000 40 call 
8888 2440 0 40 call 
total pot: 200 

flop
SPADES 9 
SPADES 10 
CLUBS J 

inquire
7777 10260 2000 40 check 
2222 2120 0 40 check 
6666 7220 2000 40 check 
5555 3760 2000 40 call 
8888 2440 0 40 call 
total pot: 200 

7777: 
THREE_OF_A_KIND 0.0
HIGH_ONE_PAIR 0.15507378
HIGH_TWO_PAIR 0.032204594
LOW_ONE_PAIR 0.35693923
HIGH_CARD 0.082637995
STRAIGHT_1 0.0
2222: 
HIGH_CARD 0.28235695
FLUSH_1 0.08790449
HIGH_TWO_PAIR 0.0068441094
STRAIGHT 0.0
6666: 
FLUSH_1 0.0
HIGH_CARD 0.26446986
LOW_ONE_PAIR 0.37691274
STRAIGHT_1 0.02312691
HIGH_ONE_PAIR 0.13850138
THREE_OF_A_KIND 0.012320171
5555: 
HIGH_CARD 0.15990658
HIGH_ONE_PAIR 0.27936038
FLUSH_1 0.026199667
LOW_TWO_PAIR 0.0
LOW_ONE_PAIR 0.19224241
STRAIGHT_1 0.07104687
THREE_OF_A_KIND 0.0
HIGH_TWO_PAIR 0.01803852
To server: call 

turn
SPADES 4 

inquire
7777 10260 2000 40 check 
2222 2120 0 40 check 
6666 7220 2000 40 check 
5555 3760 2000 40 check 
8888 2440 0 40 check 
total pot: 200 

7777: 
HIGH_CARD 0.0
HIGH_ONE_PAIR 0.0
LOW_ONE_PAIR 0.0
LOW_TWO_PAIR 0.0
THREE_OF_A_KIND 0.0
STRAIGHT_1 0.0
STRAIGHT 0.0
HIGH_TWO_PAIR 0.0
2222: 
FULL_HOUSE_UP 0.0
LOW_TWO_PAIR 0.0
FLUSH_1 0.0
STRAIGHT_1 0.13040122
HIGH_TWO_PAIR 0.0
STRAIGHT 0.0
6666: 
HIGH_TWO_PAIR 0.0
HIGH_ONE_PAIR 0.0
LOW_TWO_PAIR 0.0
STRAIGHT_1 0.0
LOW_ONE_PAIR 0.0
FLUSH_1 0.0
THREE_OF_A_KIND 0.0
FLUSH 0.0
HIGH_CARD 0.0
5555: 
LOW_ONE_PAIR 0.0
LOW_TWO_PAIR 0.0
FLUSH_1 0.0
HIGH_TWO_PAIR 0.0
HIGH_ONE_PAIR 0.0
HIGH_CARD 0.0
THREE_OF_A_KIND 0.0
STRAIGHT_1 0.0
To server: call 

river
HEARTS 3 

inquire
7777 10260 2000 40 fold 
2222 2120 0 40 check 
6666 7220 2000 40 check 
5555 3760 2000 40 check 
8888 2440 0 40 check 
total pot: 200 

2222: 
STRAIGHT 0.0
LOW_ONE_PAIR 0.0
HIGH_ONE_PAIR 0.0
6666: 
LOW_ONE_PAIR 0.0
HIGH_TWO_PAIR 0.0
HIGH_ONE_PAIR 0.0
THREE_OF_A_KIND 0.0
FLUSH 0.0
LOW_TWO_PAIR 0.0
5555: 
LOW_ONE_PAIR 0.0
LOW_TWO_PAIR 0.0
HIGH_TWO_PAIR 0.0
HIGH_ONE_PAIR 0.0
THREE_OF_A_KIND 0.0
STRAIGHT 0.0
FLUSH 0.0
To server: fold 

showdown
common/ 
SPADES 9 
SPADES 10 
CLUBS J 
SPADES 4 
HEARTS 3 
/common 
1: 6666 DIAMONDS J CLUBS 10 TWO_PAIR 
2: 2222 HEARTS J CLUBS 6 ONE_PAIR 
3: 5555 CLUBS 4 DIAMONDS 8 ONE_PAIR 

pot-win
6666: 200 

seat
button: 6666 7420 2000 
small blind: 2222 2120 0 
big blind: 7777 10260 2000 
8888 2440 0 
5555 3760 2000 

blind
2222: 20 
7777: 40 

hold
CLUBS 9 
CLUBS 3 

inquire
7777 10220 2000 40 blind 
2222 2100 0 20 blind 
total pot: 60 

To server: call 

notify
7777 10220 2000 40 check 
2222 2080 0 40 call 
6666 7380 2000 40 call 
5555 3720 2000 40 call 
8888 2400 0 40 call 
total pot: 200 

flop
HEARTS 2 
DIAMONDS J 
SPADES 10 

inquire
7777 10220 2000 40 check 
2222 2080 0 40 check 
6666 7380 2000 40 call 
5555 3720 2000 40 call 
8888 2400 0 40 call 
total pot: 200 

7777: 
HIGH_ONE_PAIR 0.15447153
STRAIGHT_1 0.0
HIGH_CARD 0.08231708
THREE_OF_A_KIND 0.0
HIGH_TWO_PAIR 0.032330148
LOW_ONE_PAIR 0.3583308
2222: 
HIGH_TWO_PAIR 0.006717366
HIGH_CARD 0.28768444
STRAIGHT 0.0
FLUSH_1 0.089563064
6666: 
HIGH_CARD 0.26299307
HIGH_ONE_PAIR 0.13185225
HIGH_TWO_PAIR 0.0
LOW_ONE_PAIR 0.374808
FLUSH_1 0.0
STRAIGHT_1 0.022997769
THREE_OF_A_KIND 0.011728709
5555: 
LOW_ONE_PAIR 0.1891747
HIGH_CARD 0.15735488
HIGH_TWO_PAIR 0.017750671
LOW_TWO_PAIR 0.0
HIGH_ONE_PAIR 0.2749025
THREE_OF_A_KIND 0.0
STRAIGHT_1 0.09596286
FLUSH_1 0.025241677
To server: call 

turn
DIAMONDS Q 

inquire
7777 10220 2000 40 check 
2222 2080 0 40 check 
6666 7380 2000 40 check 
5555 3720 2000 40 check 
8888 2400 0 40 check 
total pot: 200 

7777: 
STRAIGHT 0.0
HIGH_CARD 0.0
HIGH_TWO_PAIR 0.0
LOW_ONE_PAIR 0.0
HIGH_ONE_PAIR 0.0
STRAIGHT_1 0.0
THREE_OF_A_KIND 0.0
LOW_TWO_PAIR 0.0
2222: 
LOW_TWO_PAIR 0.0
FULL_HOUSE_UP 0.0
HIGH_TWO_PAIR 0.0
FLUSH_1 0.0
STRAIGHT_1 0.13286163
STRAIGHT 0.0
6666: 
LOW_ONE_PAIR 0.0
THREE_OF_A_KIND 0.0
STRAIGHT_1 0.0
HIGH_ONE_PAIR 0.0
HIGH_TWO_PAIR 0.0
HIGH_CARD 0.0
FLUSH_1 0.0
FLUSH 0.0
LOW_TWO_PAIR 0.0
5555: 
HIGH_CARD 0.0
STRAIGHT_1 0.0
LOW_TWO_PAIR 0.0
HIGH_ONE_PAIR 0.0
HIGH_TWO_PAIR 0.0
THREE_OF_A_KIND 0.0
FLUSH_1 0.0
LOW_ONE_PAIR 0.0
To server: call 

river
HEARTS A 

inquire
7777 10220 2000 40 check 
2222 2080 0 40 check 
6666 7380 2000 40 check 
5555 3720 2000 40 check 
8888 2400 0 40 check 
total pot: 200 

7777: 
HIGH_TWO_PAIR 0.0
THREE_OF_A_KIND 0.0
LOW_ONE_PAIR 0.0
HIGH_ONE_PAIR 0.0
STRAIGHT 0.0
LOW_TWO_PAIR 0.0
2222: 
LOW_ONE_PAIR 0.0
HIGH_ONE_PAIR 0.0
STRAIGHT 0.0
6666: 
HIGH_ONE_PAIR 0.0
LOW_TWO_PAIR 0.0
THREE_OF_A_KIND 0.0
HIGH_TWO_PAIR 0.0
FLUSH 0.0
LOW_ONE_PAIR 0.0
5555: 
THREE_OF_A_KIND 0.0
LOW_TWO_PAIR 0.0
STRAIGHT 0.0
LOW_ONE_PAIR 0.0
HIGH_ONE_PAIR 0.0
FLUSH 0.0
HIGH_TWO_PAIR 0.0
To server: fold 

showdown
common/ 
HEARTS 2 
DIAMONDS J 
SPADES 10 
DIAMONDS Q 
HEARTS A 
/common 
3: 2222 DIAMONDS 3 HEARTS 4 HIGH_CARD 
2: 7777 CLUBS J HEARTS 9 ONE_PAIR 
2: 5555 HEARTS J SPADES 4 ONE_PAIR 
1: 6666 HEARTS K DIAMONDS 10 STRAIGHT 

pot-win
6666: 200 

seat
button: 2222 2080 0 
small blind: 7777 10220 2000 
big blind: 8888 2400 0 
5555 3720 2000 
6666 7580 2000 

blind
7777: 20 
8888: 40 

hold
DIAMONDS 4 
CLUBS 8 

inquire
7777 10180 2000 40 call 
2222 2040 0 40 call 
6666 7580 2000 0 fold 
5555 3680 2000 40 call 
8888 2360 0 40 blind 
total pot: 160 

7777: 
HIGH_SINGLE 0.10753747
SMALL_FLUSH 0.066636376
BIG_PAIR 0.015125031
BIG_FLUSH 0.022573158
LOW_SINGLE 0.16378605
SMALL_PAIR 0.014123312
2222: 
SMALL_FLUSH 0.18992884
SMALL_PAIR 0.010276813
LOW_SINGLE 0.20999569
5555: 
BIG_FLUSH 0.0074441694
SMALL_FLUSH 0.0916827
HIGH_SINGLE 0.057182714
LOW_SINGLE 0.3037248
BIG_PAIR 0.042718448
SMALL_PAIR 0.03959481
To server: call 

flop
HEARTS 7 
CLUBS 6 
CLUBS 2 

inquire
7777 10180 2000 40 check 
2222 2040 0 40 call 
6666 7580 2000 0 fold 
5555 3680 2000 40 call 
8888 2360 0 40 check 
total pot: 160 

7777: 
LOW_ONE_PAIR 0.3511682
HIGH_TWO_PAIR 0.031683903
STRAIGHT_1 0.0
HIGH_ONE_PAIR 0.15020576
HIGH_CARD 0.08004386
THREE_OF_A_KIND 0.0
2222: 
FLUSH_1 0.08834075
HIGH_CARD 0.30896926
HIGH_TWO_PAIR 0.006378022
STRAIGHT 0.0
5555: 
HIGH_CARD 0.15496874
HIGH_ONE_PAIR 0.29633692
THREE_OF_A_KIND 0.0
STRAIGHT_1 0.09450768
LOW_ONE_PAIR 0.18630604
HIGH_TWO_PAIR 0.017481502
FLUSH_1 0.02433281
LOW_TWO_PAIR 0.0
To server: call 

turn
SPADES 6 

inquire
7777 10180 2000 40 check 
2222 2040 0 40 check 
6666 7580 2000 0 fold 
5555 3680 2000 40 check 
8888 2360 0 40 check 
total pot: 160 

7777: 
THREE_OF_A_KIND 0.0
LOW_TWO_PAIR 0.0
HIGH_CARD 0.0
STRAIGHT 0.0
LOW_ONE_PAIR 0.0
HIGH_TWO_PAIR 0.0
STRAIGHT_1 0.0
HIGH_ONE_PAIR 0.0
2222: 
FLUSH_1 0.0
LOW_TWO_PAIR 0.0
STRAIGHT 0.0
FULL_HOUSE_UP 0.0
HIGH_TWO_PAIR 0.0
STRAIGHT_1 0.13541667
5555: 
THREE_OF_A_KIND 0.0
HIGH_TWO_PAIR 0.0
FLUSH_1 0.0
HIGH_CARD 0.0
LOW_ONE_PAIR 0.0
LOW_TWO_PAIR 0.0
HIGH_ONE_PAIR 0.0
STRAIGHT_1 0.0
To server: call 

river
DIAMONDS J 

inquire
7777 10180 2000 40 check 
2222 2040 0 40 check 
6666 7580 2000 0 fold 
5555 3680 2000 40 check 
8888 2360 0 40 check 
total pot: 160 

7777: 
LOW_ONE_PAIR 0.0
THREE_OF_A_KIND 0.0
LOW_TWO_PAIR 0.0
HIGH_TWO_PAIR 0.0
HIGH_ONE_PAIR 0.0
STRAIGHT 0.0
2222: 
STRAIGHT 0.0
LOW_ONE_PAIR 0.0
HIGH_ONE_PAIR 0.0
5555: 
FLUSH 0.0
HIGH_TWO_PAIR 0.0
LOW_ONE_PAIR 0.0
STRAIGHT 0.0
THREE_OF_A_KIND 0.0
HIGH_ONE_PAIR 0.0
LOW_TWO_PAIR 0.0
To server: call 

showdown
common/ 
HEARTS 7 
CLUBS 6 
CLUBS 2 
SPADES 6 
DIAMONDS J 
/common 
3: 7777 HEARTS Q SPADES 4 ONE_PAIR 
4: 8888 DIAMONDS 4 CLUBS 8 ONE_PAIR 
2: 5555 DIAMONDS A SPADES 8 ONE_PAIR 
1: 2222 DIAMONDS 2 SPADES 7 TWO_PAIR 

pot-win
2222: 160 

seat
button: 7777 10180 2000 
small blind: 8888 2360 0 
big blind: 5555 3680 2000 
6666 7580 2000 
2222 2200 0 

blind
8888: 20 
5555: 40 

hold
HEARTS 7 
DIAMONDS 5 

inquire
7777 10140 2000 40 call 
2222 2160 0 40 call 
6666 7540 2000 40 call 
5555 3640 2000 40 blind 
8888 2340 0 20 blind 
total pot: 180 

7777: 
LOW_SINGLE 0.1715045
BIG_PAIR 0.014839362
SMALL_PAIR 0.013856563
BIG_FLUSH 0.022146814
SMALL_FLUSH 0.0653778
HIGH_SINGLE 0.105506375
2222: 
LOW_SINGLE 0.2033046
SMALL_FLUSH 0.19742276
SMALL_PAIR 0.010682299
6666: 
BIG_PAIR 0.01102767
HIGH_SINGLE 0.098602414
BIG_FLUSH 0.01961225
SMALL_FLUSH 0.1633342
LOW_SINGLE 0.4487044
To server: call 

flop
SPADES A 
HEARTS K 
CLUBS 8 

inquire
7777 10140 2000 40 call 
2222 2160 0 40 call 
6666 7540 2000 40 call 
5555 3640 2000 40 check 
8888 2320 0 40 call 
total pot: 200 

7777: 
THREE_OF_A_KIND 0.0
HIGH_ONE_PAIR 0.14613838
HIGH_TWO_PAIR 0.031068671
STRAIGHT_1 0.0
LOW_ONE_PAIR 0.34434927
HIGH_CARD 0.07787638
2222: 
FLUSH_1 0.08091209
STRAIGHT 0.0
LOW_TWO_PAIR 0.028977271
HIGH_TWO_PAIR 0.0065351743
HIGH_CARD 0.2829877
6666: 
FLUSH_1 0.0
STRAIGHT_1 0.022875423
HIGH_TWO_PAIR 0.0
HIGH_ONE_PAIR 0.14920779
THREE_OF_A_KIND 0.011179003
HIGH_CARD 0.26159394
LOW_ONE_PAIR 0.3640798
5555: 
THREE_OF_A_KIND 0.0
LOW_TWO_PAIR 0.0
HIGH_CARD 0.17646238
HIGH_ONE_PAIR 0.29206902
HIGH_TWO_PAIR 0.01722973
FLUSH_1 0.023469385
STRAIGHT_1 0.09314656
LOW_ONE_PAIR 0.18362285
To server: call 

turn
CLUBS 5 

inquire
7777 10140 2000 40 check 
2222 2160 0 40 check 
6666 7540 2000 40 check 
5555 3640 2000 40 check 
8888 2320 0 40 check 
total pot: 200 

7777: 
HIGH_CARD 0.0
STRAIGHT_1 0.0
STRAIGHT 0.0
THREE_OF_A_KIND 0.0
HIGH_ONE_PAIR 0.0
LOW_TWO_PAIR 0.0
LOW_ONE_PAIR 0.0
HIGH_TWO_PAIR 0.0
2222: 
FLUSH_1 0.0
HIGH_TWO_PAIR 0.0
FULL_HOUSE_UP 0.0
LOW_TWO_PAIR 0.0
STRAIGHT_1 0.12290907
STRAIGHT 0.0
6666: 
STRAIGHT_1 0.0
LOW_TWO_PAIR 0.0
HIGH_ONE_PAIR 0.0
LOW_ONE_PAIR 0.0
FLUSH_1 0.0
HIGH_TWO_PAIR 0.0
HIGH_CARD 0.0
THREE_OF_A_KIND 0.0
FLUSH 0.0
5555: 
STRAIGHT_1 0.0
HIGH_ONE_PAIR 0.0
HIGH_TWO_PAIR 0.0
LOW_ONE_PAIR 0.0
THREE_OF_A_KIND 0.0
FLUSH_1 0.0
LOW_TWO_PAIR 0.0
HIGH_CARD 0.0
To server: call 

river
HEARTS 10 

inquire
7777 10140 2000 40 check 
2222 2160 0 40 check 
6666 7540 2000 40 check 
5555 3640 2000 40 check 
8888 2320 0 40 check 
total pot: 200 

7777: 
LOW_TWO_PAIR 0.0
HIGH_TWO_PAIR 0.0
LOW_ONE_PAIR 0.0
HIGH_ONE_PAIR 0.0
THREE_OF_A_KIND 0.0
STRAIGHT 0.0
2222: 
HIGH_ONE_PAIR 0.0
STRAIGHT 0.0
LOW_ONE_PAIR 0.0
6666: 
HIGH_ONE_PAIR 0.0
THREE_OF_A_KIND 0.0
LOW_TWO_PAIR 0.0
STRAIGHT 0.0
LOW_ONE_PAIR 0.0
HIGH_TWO_PAIR 0.0
FLUSH 0.0
5555: 
LOW_TWO_PAIR 0.0
LOW_ONE_PAIR 0.0
HIGH_ONE_PAIR 0.0
FLUSH 0.0
STRAIGHT 0.0
THREE_OF_A_KIND 0.0
HIGH_TWO_PAIR 0.0
To server: call 

showdown
common/ 
SPADES A 
HEARTS K 
CLUBS 8 
CLUBS 5 
HEARTS 10 
/common 
3: 8888 HEARTS 7 DIAMONDS 5 ONE_PAIR 
3: 5555 SPADES 2 HEARTS 5 ONE_PAIR 
1: 6666 SPADES 10 HEARTS A TWO_PAIR 
2: 2222 DIAMONDS A DIAMONDS 6 ONE_PAIR 

pot-win
6666: 200 

seat
button: 8888 2320 0 
small blind: 5555 3640 2000 
big blind: 6666 7740 2000 
2222 2160 0 
7777 10140 2000 

blind
5555: 20 
6666: 40 

hold
SPADES 10 
HEARTS J 

inquire
7777 10100 2000 40 call 
2222 2120 0 40 call 
6666 7700 2000 40 blind 
5555 3620 2000 20 blind 
total pot: 140 

7777: 
SMALL_PAIR 0.013911223
SMALL_FLUSH 0.0656357
BIG_PAIR 0.014897899
LOW_SINGLE 0.17218103
BIG_FLUSH 0.022234177
HIGH_SINGLE 0.10592258
2222: 
LOW_SINGLE 0.20355988
SMALL_FLUSH 0.2071889
SMALL_PAIR 0.010310311
To server: call 

notify
7777 10100 2000 40 call 
2222 2120 0 40 call 
6666 7700 2000 40 check 
5555 3620 2000 20 fold 
8888 2280 0 40 call 
total pot: 180 

flop
HEARTS 8 
CLUBS 2 
HEARTS 9 

inquire
7777 10100 2000 40 check 
2222 2120 0 40 check 
6666 7700 2000 40 check 
5555 3620 2000 20 fold 
8888 2280 0 40 call 
total pot: 180 

7777: 
LOW_ONE_PAIR 0.34570763
HIGH_CARD 0.077570386
STRAIGHT_1 0.0
THREE_OF_A_KIND 0.0
HIGH_ONE_PAIR 0.14556418
HIGH_TWO_PAIR 0.03119123
2222: 
HIGH_CARD 0.28822827
LOW_TWO_PAIR 0.029513888
FLUSH_1 0.08241046
HIGH_TWO_PAIR 0.0064163525
STRAIGHT 0.0
6666: 
FLUSH_1 0.0
THREE_OF_A_KIND 0.010667197
STRAIGHT_1 0.022759348
HIGH_TWO_PAIR 0.0
HIGH_CARD 0.2602666
HIGH_ONE_PAIR 0.1654593
LOW_ONE_PAIR 0.34741122
To server: call 

turn
DIAMONDS 2 

inquire
7777 10100 2000 40 check 
2222 2120 0 40 check 
6666 7700 2000 40 check 
5555 3620 2000 20 fold 
8888 2280 0 40 check 
total pot: 180 

7777: 
HIGH_ONE_PAIR 0.0
THREE_OF_A_KIND 0.0
LOW_TWO_PAIR 0.0
HIGH_CARD 0.0
LOW_ONE_PAIR 0.0
STRAIGHT 0.0
STRAIGHT_1 0.0
HIGH_TWO_PAIR 0.0
2222: 
STRAIGHT_1 0.12518518
FULL_HOUSE_UP 0.0
HIGH_TWO_PAIR 0.0
FLUSH_1 0.0
LOW_TWO_PAIR 0.0
STRAIGHT 0.0
6666: 
FLUSH 0.0
STRAIGHT_1 0.0
THREE_OF_A_KIND 0.0
FLUSH_1 0.0
HIGH_TWO_PAIR 0.0
LOW_TWO_PAIR 0.0
HIGH_CARD 0.0
LOW_ONE_PAIR 0.0
HIGH_ONE_PAIR 0.0
To server: call 

river
DIAMONDS 5 

inquire
7777 10100 2000 40 check 
2222 2120 0 40 check 
6666 7700 2000 40 check 
5555 3620 2000 20 fold 
8888 2280 0 40 check 
total pot: 180 

7777: 
HIGH_ONE_PAIR 0.0
HIGH_TWO_PAIR 0.0
LOW_ONE_PAIR 0.0
STRAIGHT 0.0
THREE_OF_A_KIND 0.0
LOW_TWO_PAIR 0.0
2222: 
STRAIGHT 0.0
LOW_ONE_PAIR 0.0
HIGH_ONE_PAIR 0.0
6666: 
LOW_ONE_PAIR 0.0
STRAIGHT 0.0
FLUSH 0.0
LOW_TWO_PAIR 0.0
THREE_OF_A_KIND 0.0
HIGH_ONE_PAIR 0.0
HIGH_TWO_PAIR 0.0
To server: call 

showdown
common/ 
HEARTS 8 
CLUBS 2 
HEARTS 9 
DIAMONDS 2 
DIAMONDS 5 
/common 
3: 6666 DIAMONDS K SPADES Q ONE_PAIR 
1: 2222 CLUBS 3 HEARTS 5 TWO_PAIR 
2: 7777 DIAMONDS A SPADES 3 ONE_PAIR 
4: 8888 SPADES 10 HEARTS J ONE_PAIR 

pot-win
2222: 180 

seat
button: 5555 3620 2000 
small blind: 6666 7700 2000 
big blind: 2222 2300 0 
7777 10100 2000 
8888 2280 0 

blind
6666: 20 
2222: 40 

hold
DIAMONDS 7 
CLUBS 6 

inquire
7777 10060 2000 40 call 
2222 2260 0 40 blind 
6666 7680 2000 20 blind 
total pot: 100 

7777: 
BIG_FLUSH 0.021826183
SMALL_PAIR 0.013655954
SMALL_FLUSH 0.064431295
BIG_PAIR 0.014624524
LOW_SINGLE 0.17990388
HIGH_SINGLE 0.10397892
To server: call 

notify
7777 10060 2000 40 call 
2222 2260 0 40 check 
6666 7660 2000 40 call 
5555 3580 2000 40 call 
8888 2240 0 40 call 
total pot: 200 

flop
CLUBS 3 
SPADES 7 
CLUBS Q 

inquire
7777 10060 2000 40 check 
2222 2260 0 40 check 
6666 7660 2000 40 check 
5555 3580 2000 40 call 
8888 2240 0 40 call 
total pot: 200 

7777: 
HIGH_TWO_PAIR 0.030603062
HIGH_ONE_PAIR 0.14169472
THREE_OF_A_KIND 0.0
HIGH_CARD 0.07550836
STRAIGHT_1 0.0
LOW_ONE_PAIR 0.33918867
2222: 
HIGH_TWO_PAIR 0.006625192
FLUSH_1 0.07504889
STRAIGHT 0.0
HIGH_CARD 0.28481054
LOW_TWO_PAIR 0.026877468
6666: 
HIGH_TWO_PAIR 0.0
FLUSH_1 0.0
HIGH_CARD 0.25244856
LOW_ONE_PAIR 0.3404855
STRAIGHT_1 0.022075688
HIGH_ONE_PAIR 0.16216086
THREE_OF_A_KIND 0.010454545
5555: 
HIGH_CARD 0.21606404
HIGH_ONE_PAIR 0.28966826
LOW_TWO_PAIR 0.0
FLUSH_1 0.022523642
THREE_OF_A_KIND 0.0
STRAIGHT_1 0.09238091
LOW_ONE_PAIR 0.18211348
HIGH_TWO_PAIR 0.017088106
To server: call 

turn
HEARTS 7 

inquire
7777 10060 2000 40 check 
2222 2260 0 40 check 
6666 7660 2000 40 check 
5555 3580 2000 40 check 
8888 2240 0 40 check 
total pot: 200 

7777: 
LOW_ONE_PAIR 0.0
STRAIGHT_1 0.0
HIGH_ONE_PAIR 0.0
THREE_OF_A_KIND 0.0
LOW_TWO_PAIR 0.0
HIGH_CARD 0.0
HIGH_TWO_PAIR 0.0
STRAIGHT 0.0
2222: 
LOW_TWO_PAIR 0.0
STRAIGHT_1 0.11756519
HIGH_TWO_PAIR 0.0
FULL_HOUSE_UP 0.0
STRAIGHT 0.0
FLUSH_1 0.0
6666: 
HIGH_CARD 0.0
FLUSH 0.0
FLUSH_1 0.0
LOW_ONE_PAIR 0.0
HIGH_TWO_PAIR 0.0
HIGH_ONE_PAIR 0.0
STRAIGHT_1 0.0
THREE_OF_A_KIND 0.0
LOW_TWO_PAIR 0.0
5555: 
HIGH_ONE_PAIR 0.0
LOW_TWO_PAIR 0.0
HIGH_TWO_PAIR 0.0
HIGH_CARD 0.0
THREE_OF_A_KIND 0.0
LOW_ONE_PAIR 0.0
FLUSH_1 0.0
STRAIGHT_1 0.0
To server: call 

river
SPADES 5 

inquire
7777 10060 2000 40 check 
2222 2260 0 40 check 
6666 7660 2000 40 check 
5555 3580 2000 40 check 
8888 2240 0 40 check 
total pot: 200 

7777: 
THREE_OF_A_KIND 0.0
HIGH_ONE_PAIR 0.0
LOW_TWO_PAIR 0.0
HIGH_TWO_PAIR 0.0
STRAIGHT 0.0
LOW_ONE_PAIR 0.0
2222: 
HIGH_ONE_PAIR 0.0
STRAIGHT 0.0
LOW_ONE_PAIR 0.0
6666: 
HIGH_TWO_PAIR 0.0
HIGH_ONE_PAIR 0.0
FLUSH 0.0
THREE_OF_A_KIND 0.0
LOW_ONE_PAIR 0.0
LOW_TWO_PAIR 0.0
STRAIGHT 0.0
5555: 
THREE_OF_A_KIND 0.0
LOW_TWO_PAIR 0.0
FLUSH 0.0
HIGH_TWO_PAIR 0.0
LOW_ONE_PAIR 0.0
HIGH_ONE_PAIR 0.0
STRAIGHT 0.0
To server: call 

showdown
common/ 
CLUBS 3 
SPADES 7 
CLUBS Q 
HEARTS 7 
SPADES 5 
/common 
3: 6666 SPADES Q DIAMONDS 3 TWO_PAIR 
5: 2222 HEARTS 6 CLUBS 10 ONE_PAIR 
4: 7777 SPADES A DIAMONDS 9 ONE_PAIR 
1: 8888 DIAMONDS 7 CLUBS 6 THREE_OF_A_KIND 
2: 5555 DIAMONDS Q CLUBS 9 TWO_PAIR 

pot-win
8888: 200 

seat
button: 6666 7660 2000 
small blind: 2222 2260 0 
big blind: 7777 10060 2000 
8888 2440 0 
5555 3580 2000 

blind
2222: 20 
7777: 40 

hold
DIAMONDS 2 
SPADES 2 

inquire
7777 10020 2000 40 blind 
2222 2240 0 20 blind 
total pot: 60 

To server: call 

notify
7777 10020 2000 40 check 
2222 2220 0 40 call 
6666 7620 2000 40 call 
5555 3540 2000 40 call 
8888 2400 0 40 call 
total pot: 200 

flop
HEARTS 10 
SPADES J 
DIAMONDS 8 

inquire
7777 10020 2000 40 check 
2222 2220 0 40 check 
6666 7620 2000 40 call 
5555 3540 2000 40 call 
8888 2400 0 40 call 
total pot: 200 

7777: 
HIGH_ONE_PAIR 0.13799728
THREE_OF_A_KIND 0.0
STRAIGHT_1 0.0
LOW_ONE_PAIR 0.33296978
HIGH_CARD 0.073538
HIGH_TWO_PAIR 0.03004197
2222: 
HIGH_CARD 0.3042826
FLUSH_1 0.07413081
LOW_TWO_PAIR 0.02654867
STRAIGHT 0.0
HIGH_TWO_PAIR 0.0063185007
6666: 
HIGH_ONE_PAIR 0.15903184
THREE_OF_A_KIND 0.0102528175
STRAIGHT_1 0.021425372
LOW_ONE_PAIR 0.33391565
FLUSH_1 0.0
HIGH_CARD 0.24501182
HIGH_TWO_PAIR 0.0
5555: 
FLUSH_1 0.021744413
HIGH_CARD 0.2132763
LOW_ONE_PAIR 0.17976376
HIGH_ONE_PAIR 0.30930746
HIGH_TWO_PAIR 0.016867626
THREE_OF_A_KIND 0.0
STRAIGHT_1 0.09118897
LOW_TWO_PAIR 0.0
To server: call 

turn
CLUBS J 

inquire
7777 10020 2000 40 check 
2222 2220 0 40 check 
6666 7620 2000 40 check 
5555 3540 2000 40 check 
8888 2400 0 40 check 
total pot: 200 

7777: 
LOW_TWO_PAIR 0.0
HIGH_ONE_PAIR 0.0
HIGH_TWO_PAIR 0.0
HIGH_CARD 0.0
THREE_OF_A_KIND 0.0
LOW_ONE_PAIR 0.0
STRAIGHT 0.0
STRAIGHT_1 0.0
2222: 
FULL_HOUSE_UP 0.0
STRAIGHT_1 0.119646005
STRAIGHT 0.0
HIGH_TWO_PAIR 0.0
LOW_TWO_PAIR 0.0
FLUSH_1 0.0
6666: 
HIGH_TWO_PAIR 0.0
FLUSH_1 0.0
THREE_OF_A_KIND 0.0
HIGH_ONE_PAIR 0.0
LOW_TWO_PAIR 0.0
HIGH_CARD 0.0
STRAIGHT_1 0.0
LOW_ONE_PAIR 0.0
FLUSH 0.0
5555: 
HIGH_TWO_PAIR 0.0
HIGH_ONE_PAIR 0.0
FLUSH_1 0.0
LOW_TWO_PAIR 0.0
THREE_OF_A_KIND 0.0
STRAIGHT_1 0.0
LOW_ONE_PAIR 0.0
HIGH_CARD 0.0
To server: call 

river
SPADES 7 

inquire
7777 10020 2000 40 check 
2222 2220 0 40 check 
6666 7620 2000 40 check 
5555 3540 2000 40 check 
8888 2400 0 40 check 
total pot: 200 

7777: 
THREE_OF_A_KIND 0.0
HIGH_ONE_PAIR 0.0
STRAIGHT 0.0
LOW_TWO_PAIR 0.0
LOW_ONE_PAIR 0.0
HIGH_TWO_PAIR 0.0
2222: 
HIGH_ONE_PAIR 0.0
LOW_ONE_PAIR 0.0
STRAIGHT 0.0
6666: 
LOW_TWO_PAIR 0.0
LOW_ONE_PAIR 0.0
FLUSH 0.0
HIGH_TWO_PAIR 0.0
HIGH_ONE_PAIR 0.0
STRAIGHT 0.0
THREE_OF_A_KIND 0.0
5555: 
THREE_OF_A_KIND 0.0
FLUSH 0.0
STRAIGHT 0.0
LOW_ONE_PAIR 0.0
LOW_TWO_PAIR 0.0
HIGH_TWO_PAIR 0.0
HIGH_ONE_PAIR 0.0
To server: call 

showdown
common/ 
HEARTS 10 
SPADES J 
DIAMONDS 8 
CLUBS J 
SPADES 7 
/common 
5: 2222 CLUBS 3 HEARTS 5 ONE_PAIR 
4: 7777 CLUBS A SPADES 3 ONE_PAIR 
3: 8888 DIAMONDS 2 SPADES 2 TWO_PAIR 
1: 5555 HEARTS 9 DIAMONDS A STRAIGHT 
2: 6666 HEARTS 8 CLUBS 4 TWO_PAIR 

pot-win
5555: 200 

seat
button: 2222 2220 0 
small blind: 7777 10020 2000 
big blind: 8888 2400 0 
5555 3740 2000 
6666 7620 2000 

blind
7777: 20 
8888: 40 

hold
DIAMONDS K 
HEARTS 9 

inquire
7777 9980 2000 40 call 
2222 2180 0 40 call 
6666 7580 2000 40 call 
5555 3700 2000 40 call 
8888 2360 0 40 blind 
total pot: 200 

7777: 
BIG_FLUSH 0.021064255
LOW_SINGLE 0.19727571
HIGH_SINGLE 0.10034912
BIG_PAIR 0.014113997
SMALL_FLUSH 0.06218206
SMALL_PAIR 0.013179242
2222: 
LOW_SINGLE 0.21351828
SMALL_PAIR 0.010083964
SMALL_FLUSH 0.2026404
6666: 
BIG_PAIR 0.009949338
HIGH_SINGLE 0.15111792
SMALL_FLUSH 0.1473627
LOW_SINGLE 0.44968462
BIG_FLUSH 0.017694479
5555: 
SMALL_FLUSH 0.08270941
LOW_SINGLE 0.34998733
SMALL_PAIR 0.035719533
BIG_PAIR 0.038537446
BIG_FLUSH 0.006715583
HIGH_SINGLE 0.05158605
To server: call 

flop
DIAMONDS 7 
DIAMONDS Q 
HEARTS 5 

inquire
7777 9980 2000 40 check 
2222 2180 0 40 call 
6666 7580 2000 40 call 
5555 3700 2000 40 call 
8888 2360 0 40 check 
total pot: 200 

7777: 
HIGH_CARD 0.07165332
THREE_OF_A_KIND 0.0
LOW_ONE_PAIR 0.32703167
HIGH_TWO_PAIR 0.029506205
HIGH_ONE_PAIR 0.13446055
STRAIGHT_1 0.0
2222: 
FLUSH_1 0.073310316
HIGH_TWO_PAIR 0.0060293353
STRAIGHT 0.0
HIGH_CARD 0.32450718
LOW_TWO_PAIR 0.026254825
6666: 
FLUSH_1 0.0
LOW_ONE_PAIR 0.3514795
STRAIGHT_1 0.02080603
HIGH_TWO_PAIR 0.0
HIGH_CARD 0.23792925
THREE_OF_A_KIND 0.010061243
HIGH_ONE_PAIR 0.15606032
5555: 
THREE_OF_A_KIND 0.0
HIGH_TWO_PAIR 0.015770527
HIGH_ONE_PAIR 0.2895943
FLUSH_1 0.022187943
STRAIGHT_1 0.10725228
LOW_TWO_PAIR 0.0
LOW_ONE_PAIR 0.16807164
HIGH_CARD 0.19940445
To server: call 

turn
SPADES 3 

inquire
7777 9980 2000 40 check 
2222 2180 0 40 check 
6666 7580 2000 40 check 
5555 3700 2000 40 check 
8888 2360 0 40 check 
total pot: 200 

7777: 
HIGH_CARD 0.0
THREE_OF_A_KIND 0.0
HIGH_ONE_PAIR 0.0
HIGH_TWO_PAIR 0.0
LOW_ONE_PAIR 0.0
LOW_TWO_PAIR 0.0
STRAIGHT_1 0.0
STRAIGHT 0.0
2222: 
STRAIGHT_1 0.12180179
HIGH_TWO_PAIR 0.0
FLUSH_1 0.0
STRAIGHT 0.0
LOW_TWO_PAIR 0.0
FULL_HOUSE_UP 0.0
6666: 
FLUSH_1 0.0
HIGH_TWO_PAIR 0.0
LOW_TWO_PAIR 0.0
FLUSH 0.0
STRAIGHT_1 0.0
HIGH_ONE_PAIR 0.0
LOW_ONE_PAIR 0.0
HIGH_CARD 0.0
THREE_OF_A_KIND 0.0
5555: 
HIGH_CARD 0.0
FLUSH_1 0.0
HIGH_ONE_PAIR 0.0
STRAIGHT_1 0.0
THREE_OF_A_KIND 0.0
LOW_ONE_PAIR 0.0
LOW_TWO_PAIR 0.0
HIGH_TWO_PAIR 0.0
To server: call 

river
SPADES 2 

inquire
7777 9980 2000 40 fold 
2222 2180 0 40 check 
6666 7580 2000 40 check 
5555 3700 2000 40 check 
8888 2360 0 40 check 
total pot: 200 

2222: 
HIGH_ONE_PAIR 0.0
LOW_ONE_PAIR 0.0
STRAIGHT 0.0
6666: 
LOW_TWO_PAIR 0.0
THREE_OF_A_KIND 0.0
STRAIGHT 0.0
HIGH_TWO_PAIR 0.0
LOW_ONE_PAIR 0.0
FLUSH 0.0
HIGH_ONE_PAIR 0.0
5555: 
LOW_ONE_PAIR 0.0
HIGH_TWO_PAIR 0.0
THREE_OF_A_KIND 0.0
FLUSH 0.0
HIGH_ONE_PAIR 0.0
STRAIGHT 0.0
LOW_TWO_PAIR 0.0
To server: fold 

showdown
common/ 
DIAMONDS 7 
DIAMONDS Q 
HEARTS 5 
SPADES 3 
SPADES 2 
/common 
2: 5555 CLUBS 4 CLUBS 5 ONE_PAIR 
1: 6666 SPADES 10 DIAMONDS 10 ONE_PAIR 
3: 2222 CLUBS 8 DIAMONDS 9 HIGH_CARD 

pot-win
6666: 200 

seat
button: 7777 9980 2000 
small blind: 8888 2360 0 
big blind: 5555 3700 2000 
6666 7780 2000 
2222 2180 0 

blind
8888: 20 
5555: 40 

hold
CLUBS 7 
SPADES Q 

inquire
7777 9940 2000 40 call 
2222 2140 0 40 call 
6666 7740 2000 40 call 
5555 3660 2000 40 blind 
8888 2340 0 20 blind 
total pot: 180 

7777: 
SMALL_FLUSH 0.0624313
LOW_SINGLE 0.19806641
BIG_PAIR 0.014170567
HIGH_SINGLE 0.100751325
SMALL_PAIR 0.0132320635
BIG_FLUSH 0.021148682
2222: 
SMALL_FLUSH 0.19583067
SMALL_PAIR 0.009745093
LOW_SINGLE 0.22214854
6666: 
BIG_PAIR 0.026679115
SMALL_FLUSH 0.14105181
LOW_SINGLE 0.4304267
BIG_FLUSH 0.016936708
HIGH_SINGLE 0.14464623
To server: call 

flop
DIAMONDS 2 
CLUBS Q 
DIAMONDS 3 

inquire
7777 9940 2000 40 call 
2222 2140 0 40 call 
6666 7740 2000 40 call 
5555 3660 2000 40 check 
8888 2320 0 40 call 
total pot: 200 

7777: 
HIGH_ONE_PAIR 0.13392378
STRAIGHT_1 0.0
HIGH_TWO_PAIR 0.029624468
LOW_ONE_PAIR 0.32834244
HIGH_CARD 0.07136727
THREE_OF_A_KIND 0.0
2222: 
FLUSH_1 0.07465545
LOW_TWO_PAIR 0.026736565
STRAIGHT 0.0
HIGH_TWO_PAIR 0.005920698
HIGH_CARD 0.3304614
6666: 
FLUSH_1 0.0
STRAIGHT_1 0.020748878
HIGH_ONE_PAIR 0.17045058
LOW_ONE_PAIR 0.33624527
HIGH_CARD 0.23727572
HIGH_TWO_PAIR 0.0
THREE_OF_A_KIND 0.009625156
5555: 
LOW_ONE_PAIR 0.18801555
HIGH_CARD 0.19697928
THREE_OF_A_KIND 0.0
STRAIGHT_1 0.10594785
FLUSH_1 0.02145176
LOW_TWO_PAIR 0.0
HIGH_TWO_PAIR 0.015578723
HIGH_ONE_PAIR 0.28607222
To server: call 

turn
CLUBS 8 

inquire
7777 9940 2000 40 check 
2222 2140 0 40 check 
6666 7740 2000 40 check 
5555 3660 2000 40 check 
8888 2320 0 40 check 
total pot: 200 

7777: 
HIGH_TWO_PAIR 0.0
HIGH_ONE_PAIR 0.0
STRAIGHT 0.0
LOW_TWO_PAIR 0.0
LOW_ONE_PAIR 0.0
STRAIGHT_1 0.0
THREE_OF_A_KIND 0.0
HIGH_CARD 0.0
2222: 
FLUSH_1 0.0
LOW_TWO_PAIR 0.0
STRAIGHT 0.0
FULL_HOUSE_UP 0.0
STRAIGHT_1 0.13832037
HIGH_TWO_PAIR 0.0
6666: 
LOW_ONE_PAIR 0.0
LOW_TWO_PAIR 0.0
FLUSH_1 0.0
HIGH_CARD 0.0
THREE_OF_A_KIND 0.0
HIGH_TWO_PAIR 0.0
HIGH_ONE_PAIR 0.0
STRAIGHT_1 0.0
FLUSH 0.0
5555: 
FLUSH_1 0.0
THREE_OF_A_KIND 0.0
HIGH_ONE_PAIR 0.0
HIGH_CARD 0.0
STRAIGHT_1 0.0
LOW_ONE_PAIR 0.0
LOW_TWO_PAIR 0.0
HIGH_TWO_PAIR 0.0
To server: call 

river
CLUBS 6 

inquire
7777 9940 2000 40 check 
2222 2140 0 40 check 
6666 7740 2000 40 check 
5555 3660 2000 40 check 
8888 2320 0 40 check 
total pot: 200 

7777: 
LOW_ONE_PAIR 0.0
LOW_TWO_PAIR 0.0
HIGH_TWO_PAIR 0.0
HIGH_ONE_PAIR 0.0
THREE_OF_A_KIND 0.0
STRAIGHT 0.0
2222: 
HIGH_ONE_PAIR 0.0
STRAIGHT 0.0
LOW_ONE_PAIR 0.0
6666: 
HIGH_ONE_PAIR 0.0
STRAIGHT 0.0
HIGH_TWO_PAIR 0.0
FLUSH 0.0
LOW_ONE_PAIR 0.0
THREE_OF_A_KIND 0.0
LOW_TWO_PAIR 0.0
5555: 
THREE_OF_A_KIND 0.0
HIGH_ONE_PAIR 0.0
STRAIGHT 0.0
FLUSH 0.0
LOW_ONE_PAIR 0.0
HIGH_TWO_PAIR 0.0
LOW_TWO_PAIR 0.0
To server: call 

showdown
common/ 
DIAMONDS 2 
CLUBS Q 
DIAMONDS 3 
CLUBS 8 
CLUBS 6 
/common 
1: 8888 CLUBS 7 SPADES Q ONE_PAIR 
2: 2222 HEARTS J CLUBS 3 ONE_PAIR 

pot-win
8888: 200 

seat
button: 8888 2520 0 
small blind: 5555 3660 2000 
big blind: 6666 7740 2000 
2222 2140 0 
7777 9940 2000 

blind
5555: 20 
6666: 40 

hold
HEARTS 6 
CLUBS K 

inquire
7777 9900 2000 40 call 
2222 2100 0 40 call 
6666 7700 2000 40 blind 
5555 3640 2000 20 blind 
total pot: 140 

7777: 
BIG_PAIR 0.01422759
SMALL_FLUSH 0.062682524
HIGH_SINGLE 0.101156764
BIG_FLUSH 0.021233786
LOW_SINGLE 0.19886346
SMALL_PAIR 0.01328531
2222: 
SMALL_FLUSH 0.18923374
SMALL_PAIR 0.009416809
LOW_SINGLE 0.23102754
To server: call 

notify
7777 9900 2000 40 call 
2222 2100 0 40 call 
6666 7700 2000 40 check 
5555 3620 2000 40 call 
8888 2480 0 40 call 
total pot: 200 

flop
DIAMONDS 8 
CLUBS 9 
CLUBS 2 

inquire
7777 9900 2000 40 check 
2222 2100 0 40 check 
6666 7700 2000 40 check 
5555 3620 2000 40 check 
8888 2480 0 40 call 
total pot: 200 

7777: 
HIGH_CARD 0.07108124
HIGH_TWO_PAIR 0.029743677
THREE_OF_A_KIND 0.0
HIGH_ONE_PAIR 0.13338703
LOW_ONE_PAIR 0.3296637
STRAIGHT_1 0.0
2222: 
HIGH_CARD 0.3366383
FLUSH_1 0.07605088
LOW_TWO_PAIR 0.027236313
STRAIGHT 0.0
HIGH_TWO_PAIR 0.005812061
6666: 
FLUSH_1 0.0
THREE_OF_A_KIND 0.0096749
STRAIGHT_1 0.0206422
LOW_ONE_PAIR 0.337983
HIGH_ONE_PAIR 0.17133147
HIGH_CARD 0.23605578
HIGH_TWO_PAIR 0.0
5555: 
STRAIGHT_1 0.107105754
LOW_TWO_PAIR 0.0
FLUSH_1 0.021219851
THREE_OF_A_KIND 0.0
HIGH_ONE_PAIR 0.28919867
LOW_ONE_PAIR 0.19007035
HIGH_TWO_PAIR 0.015748983
HIGH_CARD 0.19913206
To server: call 

turn
CLUBS J 

inquire
7777 9900 2000 40 check 
2222 2100 0 40 check 
6666 7700 2000 40 check 
5555 3620 2000 40 check 
8888 2480 0 40 check 
total pot: 200 

7777: 
LOW_ONE_PAIR 0.0
STRAIGHT 0.0
HIGH_TWO_PAIR 0.0
THREE_OF_A_KIND 0.0
STRAIGHT_1 0.0
LOW_TWO_PAIR 0.0
HIGH_ONE_PAIR 0.0
HIGH_CARD 0.0
2222: 
FLUSH_1 0.0
HIGH_TWO_PAIR 0.0
STRAIGHT 0.0
LOW_TWO_PAIR 0.0
STRAIGHT_1 0.1409058
FULL_HOUSE_UP 0.0
6666: 
THREE_OF_A_KIND 0.0
HIGH_TWO_PAIR 0.0
HIGH_ONE_PAIR 0.0
STRAIGHT_1 0.0
LOW_ONE_PAIR 0.0
FLUSH_1 0.0
HIGH_CARD 0.0
LOW_TWO_PAIR 0.0
FLUSH 0.0
5555: 
THREE_OF_A_KIND 0.0
HIGH_CARD 0.0
LOW_TWO_PAIR 0.0
STRAIGHT_1 0.0
LOW_ONE_PAIR 0.0
HIGH_TWO_PAIR 0.0
HIGH_ONE_PAIR 0.0
FLUSH_1 0.0
To server: call 

river
HEARTS 10 

inquire
7777 9900 2000 40 check 
2222 2100 0 40 check 
6666 7700 2000 40 check 
5555 3620 2000 40 check 
8888 2480 0 40 check 
total pot: 200 

7777: 
LOW_TWO_PAIR 0.0
HIGH_TWO_PAIR 0.0
STRAIGHT 0.0
HIGH_ONE_PAIR 0.0
LOW_ONE_PAIR 0.0
THREE_OF_A_KIND 0.0
2222: 
STRAIGHT 0.0
LOW_ONE_PAIR 0.0
HIGH_ONE_PAIR 0.0
6666: 
THREE_OF_A_KIND 0.0
LOW_TWO_PAIR 0.0
LOW_ONE_PAIR 0.0
STRAIGHT 0.0
HIGH_ONE_PAIR 0.0
FLUSH 0.0
HIGH_TWO_PAIR 0.0
5555: 
STRAIGHT 0.0
FLUSH 0.0
HIGH_ONE_PAIR 0.0
LOW_ONE_PAIR 0.0
HIGH_TWO_PAIR 0.0
LOW_TWO_PAIR 0.0
THREE_OF_A_KIND 0.0
To server: fold 

showdown
common/ 
DIAMONDS 8 
CLUBS 9 
CLUBS 2 
CLUBS J 
HEARTS 10 
/common 
2: 5555 HEARTS 7 DIAMONDS K STRAIGHT 
2: 6666 HEARTS 3 DIAMONDS 7 STRAIGHT 
3: 2222 HEARTS 9 SPADES 6 ONE_PAIR 
1: 7777 HEARTS A HEARTS Q STRAIGHT 

pot-win
7777: 200 

seat
button: 5555 3620 2000 
small blind: 6666 7700 2000 
big blind: 2222 2100 0 
7777 10100 2000 
8888 2480 0 

blind
6666: 20 
2222: 40 

hold
HEARTS 8 
CLUBS A 

inquire
7777 10060 2000 40 call 
2222 2060 0 40 blind 
6666 7680 2000 20 blind 
total pot: 100 

7777: 
BIG_PAIR 0.013710491
SMALL_PAIR 0.0128024565
LOW_SINGLE 0.19163583
HIGH_SINGLE 0.09748024
SMALL_FLUSH 0.06040434
BIG_FLUSH 0.040965308
To server: call 

notify
7777 10060 2000 40 call 
2222 2060 0 40 check 
6666 7680 2000 20 fold 
5555 3580 2000 40 call 
8888 2440 0 40 call 
total pot: 180 

flop
CLUBS 7 
SPADES K 
HEARTS 3 

inquire
7777 10060 2000 40 check 
2222 2060 0 40 check 
6666 7680 2000 20 fold 
5555 3580 2000 40 call 
8888 2440 0 40 call 
total pot: 180 

7777: 
HIGH_ONE_PAIR 0.13265038
THREE_OF_A_KIND 0.0
LOW_ONE_PAIR 0.31753832
HIGH_CARD 0.070688665
STRAIGHT_1 0.0
HIGH_TWO_PAIR 0.028649675
2222: 
HIGH_TWO_PAIR 0.0057034236
LOW_TWO_PAIR 0.027755102
HIGH_CARD 0.34305048
FLUSH_1 0.07749948
STRAIGHT 0.0
5555: 
HIGH_ONE_PAIR 0.2858966
LOW_TWO_PAIR 0.0
LOW_ONE_PAIR 0.18790014
HIGH_TWO_PAIR 0.015569163
HIGH_CARD 0.23819862
FLUSH_1 0.02052154
STRAIGHT_1 0.105882816
THREE_OF_A_KIND 0.0
To server: call 

turn
SPADES 7 

inquire
7777 10060 2000 40 check 
2222 2060 0 40 check 
6666 7680 2000 20 fold 
5555 3580 2000 40 check 
8888 2440 0 40 check 
total pot: 180 

7777: 
HIGH_CARD 0.0
STRAIGHT 0.0
STRAIGHT_1 0.0
HIGH_ONE_PAIR 0.0
LOW_TWO_PAIR 0.0
HIGH_TWO_PAIR 0.0
LOW_ONE_PAIR 0.0
THREE_OF_A_KIND 0.0
2222: 
FULL_HOUSE_UP 0.0
LOW_TWO_PAIR 0.0
STRAIGHT_1 0.14358974
STRAIGHT 0.0
HIGH_TWO_PAIR 0.0
FLUSH_1 0.0
5555: 
LOW_ONE_PAIR 0.0
HIGH_TWO_PAIR 0.0
THREE_OF_A_KIND 0.0
FLUSH_1 0.0
LOW_TWO_PAIR 0.0
HIGH_CARD 0.0
HIGH_ONE_PAIR 0.0
STRAIGHT_1 0.0
To server: call 

river
HEARTS 10 

inquire
7777 10060 2000 40 check 
2222 2060 0 40 check 
6666 7680 2000 20 fold 
5555 3580 2000 40 check 
8888 2440 0 40 check 
total pot: 180 

7777: 
HIGH_TWO_PAIR 0.0
THREE_OF_A_KIND 0.0
LOW_TWO_PAIR 0.0
LOW_ONE_PAIR 0.0
STRAIGHT 0.0
HIGH_ONE_PAIR 0.0
2222: 
STRAIGHT 0.0
HIGH_ONE_PAIR 0.0
LOW_ONE_PAIR 0.0
5555: 
HIGH_ONE_PAIR 0.0
LOW_ONE_PAIR 0.0
THREE_OF_A_KIND 0.0
HIGH_TWO_PAIR 0.0
STRAIGHT 0.0
LOW_TWO_PAIR 0.0
FLUSH 0.0
To server: call 

showdown
common/ 
CLUBS 7 
SPADES K 
HEARTS 3 
SPADES 7 
HEARTS 10 
/common 
2: 2222 HEARTS A SPADES 4 ONE_PAIR 
2: 7777 DIAMONDS 6 SPADES A ONE_PAIR 
2: 8888 HEARTS 8 CLUBS A ONE_PAIR 
1: 5555 HEARTS J DIAMONDS 3 TWO_PAIR 

pot-win
5555: 180 

seat
button: 6666 7680 2000 
small blind: 2222 2060 0 
big blind: 7777 10060 2000 
8888 2440 0 
5555 3760 2000 

blind
2222: 20 
7777: 40 

hold
HEARTS 2 
HEARTS 9 

inquire
7777 10020 2000 40 blind 
2222 2040 0 20 blind 
total pot: 60 

To server: call 

notify
7777 10020 2000 40 check 
2222 2020 0 40 call 
6666 7640 2000 40 call 
5555 3720 2000 40 call 
8888 2400 0 40 call 
total pot: 200 

flop
CLUBS 7 
CLUBS K 
CLUBS 6 

inquire
7777 10020 2000 40 check 
2222 2020 0 40 check 
6666 7640 2000 40 call 
5555 3720 2000 40 call 
8888 2400 0 40 call 
total pot: 200 

7777: 
LOW_ONE_PAIR 0.31215918
HIGH_ONE_PAIR 0.12937245
THREE_OF_A_KIND 0.0
HIGH_CARD 0.068941884
HIGH_TWO_PAIR 0.028164348
STRAIGHT_1 0.0
2222: 
HIGH_CARD 0.3656488
STRAIGHT 0.0
FLUSH_1 0.07680975
HIGH_TWO_PAIR 0.005439376
LOW_TWO_PAIR 0.02750809
6666: 
HIGH_ONE_PAIR 0.16874568
FLUSH_1 0.0
HIGH_TWO_PAIR 0.0
HIGH_CARD 0.22890258
STRAIGHT_1 0.020016678
LOW_ONE_PAIR 0.33288205
THREE_OF_A_KIND 0.009528882
5555: 
HIGH_CARD 0.22434409
HIGH_ONE_PAIR 0.26926777
LOW_ONE_PAIR 0.19726865
HIGH_TWO_PAIR 0.014663598
LOW_TWO_PAIR 0.0
FLUSH_1 0.020851819
STRAIGHT_1 0.09972427
THREE_OF_A_KIND 0.0
To server: call 

turn
CLUBS 4 

inquire
7777 10020 2000 40 check 
2222 2020 0 40 check 
6666 7640 2000 40 check 
5555 3720 2000 40 check 
8888 2400 0 40 check 
total pot: 200 

7777: 
HIGH_TWO_PAIR 0.0
STRAIGHT_1 0.0
HIGH_ONE_PAIR 0.0
STRAIGHT 0.0
HIGH_CARD 0.0
THREE_OF_A_KIND 0.0
LOW_TWO_PAIR 0.0
LOW_ONE_PAIR 0.0
2222: 
STRAIGHT_1 0.14637788
HIGH_TWO_PAIR 0.0
FLUSH_1 0.0
FULL_HOUSE_UP 0.0
STRAIGHT 0.0
LOW_TWO_PAIR 0.0
6666: 
THREE_OF_A_KIND 0.0
STRAIGHT_1 0.0
HIGH_ONE_PAIR 0.0
LOW_ONE_PAIR 0.0
FLUSH 0.0
HIGH_TWO_PAIR 0.0
HIGH_CARD 0.0
LOW_TWO_PAIR 0.0
FLUSH_1 0.0
5555: 
LOW_TWO_PAIR 0.0
FLUSH_1 0.0
THREE_OF_A_KIND 0.0
STRAIGHT_1 0.0
HIGH_CARD 0.0
LOW_ONE_PAIR 0.0
HIGH_ONE_PAIR 0.0
HIGH_TWO_PAIR 0.0
To server: call 

river
SPADES A 

inquire
7777 10020 2000 40 check 
2222 2020 0 40 check 
6666 7640 2000 40 check 
5555 3720 2000 40 check 
8888 2400 0 40 check 
total pot: 200 

7777: 
LOW_ONE_PAIR 0.0
HIGH_TWO_PAIR 0.0
STRAIGHT 0.0
LOW_TWO_PAIR 0.0
THREE_OF_A_KIND 0.0
HIGH_ONE_PAIR 0.0
2222: 
HIGH_ONE_PAIR 0.0
LOW_ONE_PAIR 0.0
STRAIGHT 0.0
6666: 
HIGH_TWO_PAIR 0.0
LOW_TWO_PAIR 0.0
FLUSH 0.0
LOW_ONE_PAIR 0.0
HIGH_ONE_PAIR 0.0
STRAIGHT 0.0
THREE_OF_A_KIND 0.0
5555: 
FLUSH 0.0
LOW_ONE_PAIR 0.0
STRAIGHT 0.0
THREE_OF_A_KIND 0.0
HIGH_ONE_PAIR 0.0
LOW_TWO_PAIR 0.0
HIGH_TWO_PAIR 0.0
To server: fold 

showdown
common/ 
CLUBS 7 
CLUBS K 
CLUBS 6 
CLUBS 4 
SPADES A 
/common 
3: 2222 SPADES 10 DIAMONDS A ONE_PAIR 
1: 7777 CLUBS 9 SPADES 7 FLUSH 
2: 5555 HEARTS K SPADES 6 TWO_PAIR 

pot-win
7777: 200 

seat
button: 2222 2020 0 
small blind: 7777 10220 2000 
big blind: 8888 2400 0 
5555 3720 2000 
6666 7640 2000 

blind
7777: 20 
8888: 40 

hold
SPADES A 
SPADES 3 

inquire
7777 10180 2000 40 call 
2222 1980 0 40 call 
6666 7640 2000 0 fold 
5555 3680 2000 40 call 
8888 2360 0 40 blind 
total pot: 160 

7777: 
BIG_PAIR 0.013007526
SMALL_FLUSH 0.057307288
BIG_FLUSH 0.038864933
SMALL_PAIR 0.012146048
HIGH_SINGLE 0.092482224
LOW_SINGLE 0.20476684
2222: 
LOW_SINGLE 0.25624856
SMALL_FLUSH 0.17320968
SMALL_PAIR 0.008619408
5555: 
LOW_SINGLE 0.37619454
BIG_PAIR 0.03544722
HIGH_SINGLE 0.04744949
BIG_FLUSH 0.0061770766
SMALL_FLUSH 0.09264194
SMALL_PAIR 0.03285527
To server: call 

flop
HEARTS 6 
CLUBS 5 
HEARTS 7 

inquire
7777 10180 2000 40 check 
2222 1980 0 40 call 
6666 7640 2000 0 fold 
5555 3680 2000 40 call 
8888 2360 0 40 check 
total pot: 160 

7777: 
HIGH_ONE_PAIR 0.12874779
HIGH_CARD 0.068609014
THREE_OF_A_KIND 0.0
HIGH_TWO_PAIR 0.027157633
LOW_ONE_PAIR 0.33745477
STRAIGHT_1 0.0
2222: 
LOW_TWO_PAIR 0.026762057
HIGH_CARD 0.38918912
FLUSH_1 0.076213695
STRAIGHT 0.0
HIGH_TWO_PAIR 0.005189601
5555: 
HIGH_TWO_PAIR 0.027885411
STRAIGHT_1 0.09865197
THREE_OF_A_KIND 0.0
HIGH_ONE_PAIR 0.26637244
LOW_ONE_PAIR 0.1951475
HIGH_CARD 0.2219318
LOW_TWO_PAIR 0.0
FLUSH_1 0.020191055
To server: call 

turn
CLUBS 6 

inquire
7777 10180 2000 40 check 
2222 1980 0 40 check 
6666 7640 2000 0 fold 
5555 3680 2000 40 check 
8888 2360 0 40 check 
total pot: 160 

7777: 
FLUSH 0.0
LOW_TWO_PAIR 0.0
LOW_ONE_PAIR 0.0
HIGH_TWO_PAIR 0.0
THREE_OF_A_KIND 0.0
HIGH_ONE_PAIR 0.0
STRAIGHT 0.0
HIGH_CARD 0.0
STRAIGHT_1 0.0
2222: 
STRAIGHT_1 0.14374773
FLUSH_1 0.0
FULL_HOUSE_UP 0.0
STRAIGHT 0.0
LOW_TWO_PAIR 0.0
HIGH_TWO_PAIR 0.0
5555: 
STRAIGHT_1 0.0
HIGH_TWO_PAIR 0.0
FLUSH_1 0.0
LOW_ONE_PAIR 0.0
LOW_TWO_PAIR 0.0
HIGH_ONE_PAIR 0.0
HIGH_CARD 0.0
THREE_OF_A_KIND 0.0
To server: call 

river
CLUBS 3 

inquire
7777 10180 2000 40 check 
2222 1980 0 40 check 
6666 7640 2000 0 fold 
5555 3680 2000 40 check 
8888 2360 0 40 check 
total pot: 160 

7777: 
LOW_ONE_PAIR 0.0
THREE_OF_A_KIND 0.0
HIGH_ONE_PAIR 0.0
STRAIGHT 0.0
LOW_TWO_PAIR 0.0
HIGH_TWO_PAIR 0.0
FLUSH 0.0
2222: 
STRAIGHT 0.0
LOW_ONE_PAIR 0.0
HIGH_ONE_PAIR 0.0
5555: 
LOW_ONE_PAIR 0.0
FLUSH 0.0
STRAIGHT 0.0
HIGH_ONE_PAIR 0.0
LOW_TWO_PAIR 0.0
THREE_OF_A_KIND 0.0
HIGH_TWO_PAIR 0.0
To server: call 

showdown
common/ 
HEARTS 6 
CLUBS 5 
HEARTS 7 
CLUBS 6 
CLUBS 3 
/common 
4: 7777 SPADES K CLUBS J ONE_PAIR 
1: 8888 SPADES A SPADES 3 TWO_PAIR 
3: 5555 DIAMONDS Q CLUBS K ONE_PAIR 
2: 2222 SPADES 2 HEARTS 3 TWO_PAIR 

pot-win
8888: 160 

seat
button: 7777 10180 2000 
small blind: 8888 2520 0 
big blind: 5555 3680 2000 
6666 7640 2000 
2222 1980 0 

blind
8888: 20 
5555: 40 

hold
HEARTS 5 
DIAMONDS 9 

inquire
7777 10140 2000 40 call 
2222 1940 0 40 call 
6666 7640 2000 0 fold 
5555 3640 2000 40 blind 
8888 2500 0 20 blind 
total pot: 140 

7777: 
BIG_PAIR 0.012802587
SMALL_FLUSH 0.056404375
LOW_SINGLE 0.20154063
HIGH_SINGLE 0.10979269
BIG_FLUSH 0.038252596
SMALL_PAIR 0.011954682
2222: 
SMALL_PAIR 0.008322626
LOW_SINGLE 0.26626626
SMALL_FLUSH 0.16724576
To server: call 

flop
CLUBS 6 
HEARTS 3 
DIAMONDS Q 

inquire
7777 10140 2000 40 call 
2222 1940 0 40 call 
6666 7640 2000 0 fold 
5555 3640 2000 40 check 
8888 2480 0 40 call 
total pot: 160 

7777: 
HIGH_TWO_PAIR 0.026719058
THREE_OF_A_KIND 0.0
HIGH_ONE_PAIR 0.125679
STRAIGHT_1 0.0
HIGH_CARD 0.066973686
LOW_ONE_PAIR 0.3320051
2222: 
LOW_TWO_PAIR 0.026232116
HIGH_TWO_PAIR 0.005086836
STRAIGHT 0.0
HIGH_CARD 0.3970515
FLUSH_1 0.077753365
5555: 
HIGH_ONE_PAIR 0.26365805
STRAIGHT_1 0.09764669
HIGH_CARD 0.24047069
LOW_ONE_PAIR 0.19315891
LOW_TWO_PAIR 0.0
HIGH_TWO_PAIR 0.027601257
THREE_OF_A_KIND 0.0
FLUSH_1 0.01955782
To server: call 

turn
HEARTS K 

inquire
7777 10140 2000 40 check 
2222 1940 0 40 check 
6666 7640 2000 0 fold 
5555 3640 2000 40 check 
8888 2480 0 40 check 
total pot: 160 

7777: 
FLUSH 0.0
HIGH_ONE_PAIR 0.0
HIGH_CARD 0.0
LOW_TWO_PAIR 0.0
THREE_OF_A_KIND 0.0
HIGH_TWO_PAIR 0.0
STRAIGHT_1 0.0
STRAIGHT 0.0
LOW_ONE_PAIR 0.0
2222: 
FLUSH_1 0.0
STRAIGHT 0.0
HIGH_TWO_PAIR 0.0
STRAIGHT_1 0.14665169
FULL_HOUSE_UP 0.0
LOW_TWO_PAIR 0.0
5555: 
LOW_ONE_PAIR 0.0
THREE_OF_A_KIND 0.0
HIGH_TWO_PAIR 0.0
HIGH_ONE_PAIR 0.0
HIGH_CARD 0.0
FLUSH_1 0.0
STRAIGHT_1 0.0
LOW_TWO_PAIR 0.0
To server: call 

river
DIAMONDS J 

inquire
7777 10140 2000 40 check 
2222 1940 0 40 check 
6666 7640 2000 0 fold 
5555 3640 2000 40 check 
8888 2480 0 40 check 
total pot: 160 

7777: 
FLUSH 0.0
HIGH_TWO_PAIR 0.0
LOW_TWO_PAIR 0.0
LOW_ONE_PAIR 0.0
THREE_OF_A_KIND 0.0
HIGH_ONE_PAIR 0.0
STRAIGHT 0.0
2222: 
STRAIGHT 0.0
HIGH_ONE_PAIR 0.0
LOW_ONE_PAIR 0.0
5555: 
HIGH_TWO_PAIR 0.0
THREE_OF_A_KIND 0.0
LOW_ONE_PAIR 0.0
FLUSH 0.0
STRAIGHT 0.0
LOW_TWO_PAIR 0.0
HIGH_ONE_PAIR 0.0
To server: fold 

showdown
common/ 
CLUBS 6 
HEARTS 3 
DIAMONDS Q 
HEARTS K 
DIAMONDS J 
/common 
1: 5555 DIAMONDS A CLUBS K ONE_PAIR 
3: 2222 CLUBS 10 SPADES 3 ONE_PAIR 
2: 7777 CLUBS A CLUBS 3 ONE_PAIR 

pot-win
5555: 160 

seat
button: 8888 2480 0 
small blind: 5555 3800 2000 
big blind: 6666 7640 2000 
2222 1940 0 
7777 10140 2000 

blind
5555: 20 
6666: 40 

hold
CLUBS 3 
CLUBS 10 

inquire
7777 10100 2000 40 call 
2222 1900 0 40 call 
6666 7600 2000 40 blind 
5555 3780 2000 20 blind 
total pot: 140 

7777: 
HIGH_SINGLE 0.10810607
BIG_PAIR 0.012605915
SMALL_FLUSH 0.0717219
SMALL_PAIR 0.011771034
LOW_SINGLE 0.19844459
BIG_FLUSH 0.037664965
2222: 
LOW_SINGLE 0.27660355
SMALL_FLUSH 0.16145726
SMALL_PAIR 0.008034573
To server: call 

notify
7777 10100 2000 40 call 
2222 1900 0 40 call 
6666 7600 2000 40 check 
5555 3760 2000 40 call 
8888 2440 0 40 call 
total pot: 200 

flop
DIAMONDS 5 
CLUBS 2 
CLUBS Q 

inquire
7777 10100 2000 40 check 
2222 1900 0 40 check 
6666 7600 2000 40 check 
5555 3760 2000 40 check 
8888 2440 0 40 call 
total pot: 200 

7777: 
STRAIGHT_1 0.0
HIGH_TWO_PAIR 0.026298488
HIGH_CARD 0.06540248
THREE_OF_A_KIND 0.0
LOW_ONE_PAIR 0.3462846
HIGH_ONE_PAIR 0.12273058
2222: 
HIGH_CARD 0.40523815
LOW_TWO_PAIR 0.025702173
STRAIGHT 0.0
FLUSH_1 0.07935652
HIGH_TWO_PAIR 0.004984071
6666: 
HIGH_ONE_PAIR 0.16962916
HIGH_TWO_PAIR 0.0
LOW_ONE_PAIR 0.3346249
HIGH_CARD 0.22771038
THREE_OF_A_KIND 0.009578773
STRAIGHT_1 0.019912427
FLUSH_1 0.0
5555: 
HIGH_TWO_PAIR 0.026184136
HIGH_CARD 0.26290497
FLUSH_1 0.019783422
LOW_ONE_PAIR 0.1832416
THREE_OF_A_KIND 0.0
STRAIGHT_1 0.09263325
HIGH_ONE_PAIR 0.25012115
LOW_TWO_PAIR 0.0
To server: call 

turn
HEARTS 2 

inquire
7777 10100 2000 40 check 
2222 1900 0 40 check 
6666 7600 2000 40 check 
5555 3760 2000 40 check 
8888 2440 0 40 check 
total pot: 200 

7777: 
STRAIGHT_1 0.0
HIGH_TWO_PAIR 0.0
FLUSH 0.0
LOW_TWO_PAIR 0.0
LOW_ONE_PAIR 0.0
STRAIGHT 0.0
THREE_OF_A_KIND 0.0
HIGH_CARD 0.0
HIGH_ONE_PAIR 0.0
2222: 
LOW_TWO_PAIR 0.0
STRAIGHT_1 0.10634835
FLUSH_1 0.0
FULL_HOUSE_UP 0.0
HIGH_ONE_PAIR 0.06565382
STRAIGHT 0.0
HIGH_TWO_PAIR 0.0
6666: 
FLUSH_1 0.0
HIGH_CARD 0.0
FLUSH 0.0
LOW_TWO_PAIR 0.0
HIGH_ONE_PAIR 0.0
STRAIGHT_1 0.0
HIGH_TWO_PAIR 0.0
LOW_ONE_PAIR 0.0
THREE_OF_A_KIND 0.0
5555: 
HIGH_CARD 0.0
LOW_TWO_PAIR 0.0
FLUSH_1 0.0
HIGH_TWO_PAIR 0.0
THREE_OF_A_KIND 0.0
STRAIGHT_1 0.0
LOW_ONE_PAIR 0.0
HIGH_ONE_PAIR 0.0
To server: call 

river
SPADES 10 

inquire
7777 10100 2000 40 check 
2222 1900 0 40 check 
6666 7600 2000 40 check 
5555 3760 2000 40 check 
8888 2440 0 40 check 
total pot: 200 

7777: 
LOW_TWO_PAIR 0.0
HIGH_ONE_PAIR 0.0
STRAIGHT 0.0
THREE_OF_A_KIND 0.0
HIGH_TWO_PAIR 0.0
LOW_ONE_PAIR 0.0
FLUSH 0.0
2222: 
HIGH_ONE_PAIR 0.0
LOW_ONE_PAIR 0.0
STRAIGHT 0.0
6666: 
LOW_TWO_PAIR 0.0
LOW_ONE_PAIR 0.0
HIGH_ONE_PAIR 0.0
FLUSH 0.0
HIGH_TWO_PAIR 0.0
STRAIGHT 0.0
THREE_OF_A_KIND 0.0
5555: 
FLUSH 0.0
HIGH_ONE_PAIR 0.0
THREE_OF_A_KIND 0.0
STRAIGHT 0.0
LOW_ONE_PAIR 0.0
HIGH_TWO_PAIR 0.0
LOW_TWO_PAIR 0.0
To server: call 

showdown
common/ 
DIAMONDS 5 
CLUBS 2 
CLUBS Q 
HEARTS 2 
SPADES 10 
/common 
3: 5555 DIAMONDS Q HEARTS 4 TWO_PAIR 
5: 6666 CLUBS 5 DIAMONDS 8 TWO_PAIR 
2: 2222 HEARTS K CLUBS K TWO_PAIR 
1: 7777 CLUBS A DIAMONDS A TWO_PAIR 
4: 8888 CLUBS 3 CLUBS 10 TWO_PAIR 

pot-win
7777: 200 

seat
button: 5555 3760 2000 
small blind: 6666 7600 2000 
big blind: 2222 1900 0 
7777 10300 2000 
8888 2440 0 

blind
6666: 20 
2222: 40 

hold
HEARTS 6 
HEARTS 2 

inquire
7777 10260 2000 40 call 
2222 1860 0 40 blind 
6666 7580 2000 20 blind 
total pot: 100 

7777: 
BIG_FLUSH 0.036380257
SMALL_PAIR 0.0113695385
LOW_SINGLE 0.19167587
HIGH_SINGLE 0.1044187
BIG_PAIR 0.020176573
SMALL_FLUSH 0.06927556
To server: call 

notify
7777 10260 2000 40 call 
2222 1860 0 40 check 
6666 7560 2000 40 call 
5555 3720 2000 40 call 
8888 2400 0 40 call 
total pot: 200 

flop
SPADES Q 
DIAMONDS 10 
CLUBS 10 

inquire
7777 10260 2000 40 check 
2222 1860 0 40 check 
6666 7560 2000 40 check 
5555 3720 2000 40 call 
8888 2400 0 40 call 
total pot: 200 

7777: 
HIGH_ONE_PAIR 0.1222697
HIGH_CARD 0.06515687
LOW_ONE_PAIR 0.3343495
HIGH_TWO_PAIR 0.025392083
STRAIGHT_1 0.0
THREE_OF_A_KIND 0.0
2222: 
FLUSH_1 0.081027195
LOW_TWO_PAIR 0.02517223
HIGH_CARD 0.41376954
STRAIGHT 0.0
HIGH_TWO_PAIR 0.004881311
6666: 
HIGH_ONE_PAIR 0.16673258
STRAIGHT_1 0.01936799
HIGH_TWO_PAIR 0.0
FLUSH_1 0.0
LOW_ONE_PAIR 0.3378153
HIGH_CARD 0.22148444
THREE_OF_A_KIND 0.009415206
5555: 
LOW_TWO_PAIR 0.0
HIGH_ONE_PAIR 0.27288175
STRAIGHT_1 0.09174633
FLUSH_1 0.019183673
THREE_OF_A_KIND 0.0
HIGH_TWO_PAIR 0.025933435
LOW_ONE_PAIR 0.18148716
HIGH_CARD 0.25493482
To server: call 

turn
HEARTS A 

inquire
7777 10260 2000 40 check 
2222 1860 0 40 check 
6666 7560 2000 40 check 
5555 3720 2000 40 check 
8888 2400 0 40 check 
total pot: 200 

7777: 
HIGH_ONE_PAIR 0.0
STRAIGHT 0.0
STRAIGHT_1 0.0
LOW_TWO_PAIR 0.0
LOW_ONE_PAIR 0.0
FLUSH 0.0
HIGH_CARD 0.0
HIGH_TWO_PAIR 0.0
THREE_OF_A_KIND 0.0
2222: 
STRAIGHT 0.0
HIGH_ONE_PAIR 0.065317124
STRAIGHT_1 0.105802976
HIGH_TWO_PAIR 0.0
LOW_TWO_PAIR 0.0
FLUSH_1 0.0
FULL_HOUSE_UP 0.0
6666: 
LOW_TWO_PAIR 0.0
HIGH_TWO_PAIR 0.0
THREE_OF_A_KIND 0.0
HIGH_ONE_PAIR 0.0
FLUSH 0.0
LOW_ONE_PAIR 0.0
STRAIGHT_1 0.0
HIGH_CARD 0.0
FLUSH_1 0.0
5555: 
HIGH_ONE_PAIR 0.0
THREE_OF_A_KIND 0.0
HIGH_CARD 0.0
HIGH_TWO_PAIR 0.0
FLUSH_1 0.0
STRAIGHT_1 0.0
LOW_ONE_PAIR 0.0
LOW_TWO_PAIR 0.0
To server: call 

river
DIAMONDS 4 

inquire
7777 10260 2000 40 check 
2222 1860 0 40 check 
6666 7560 2000 40 check 
5555 3720 2000 40 check 
8888 2400 0 40 check 
total pot: 200 

7777: 
LOW_ONE_PAIR 0.0
HIGH_TWO_PAIR 0.0
FLUSH 0.0
LOW_TWO_PAIR 0.0
HIGH_ONE_PAIR 0.0
STRAIGHT 0.0
THREE_OF_A_KIND 0.0
2222: 
HIGH_ONE_PAIR 0.0
STRAIGHT 0.0
LOW_ONE_PAIR 0.0
6666: 
LOW_ONE_PAIR 0.0
HIGH_ONE_PAIR 0.0
HIGH_TWO_PAIR 0.0
STRAIGHT 0.0
THREE_OF_A_KIND 0.0
LOW_TWO_PAIR 0.0
FLUSH 0.0
5555: 
THREE_OF_A_KIND 0.0
FLUSH 0.0
LOW_ONE_PAIR 0.0
STRAIGHT 0.0
HIGH_ONE_PAIR 0.0
HIGH_TWO_PAIR 0.0
LOW_TWO_PAIR 0.0
To server: call 

showdown
common/ 
SPADES Q 
DIAMONDS 10 
CLUBS 10 
HEARTS A 
DIAMONDS 4 
/common 
2: 6666 DIAMONDS 6 HEARTS Q TWO_PAIR 
3: 2222 SPADES J SPADES 2 ONE_PAIR 
1: 7777 HEARTS K HEARTS J STRAIGHT 
5: 8888 HEARTS 6 HEARTS 2 ONE_PAIR 
4: 5555 CLUBS 7 HEARTS 3 ONE_PAIR 

pot-win
7777: 200 

seat
button: 6666 7560 2000 
small blind: 2222 1860 0 
big blind: 7777 10460 2000 
8888 2400 0 
5555 3720 2000 

blind
2222: 20 
7777: 40 

hold
HEARTS 8 
DIAMONDS K 

inquire
7777 10420 2000 40 blind 
2222 1840 0 20 blind 
total pot: 60 

To server: call 

notify
7777 10420 2000 40 check 
2222 1820 0 40 call 
6666 7560 2000 0 fold 
5555 3680 2000 40 call 
8888 2360 0 40 call 
total pot: 160 

flop
CLUBS 7 
CLUBS 10 
SPADES 9 

inquire
7777 10420 2000 40 check 
2222 1820 0 40 check 
6666 7560 2000 0 fold 
5555 3680 2000 40 call 
8888 2360 0 40 call 
total pot: 160 

7777: 
HIGH_ONE_PAIR 0.12182625
LOW_ONE_PAIR 0.3230232
HIGH_CARD 0.06492056
STRAIGHT_1 0.0
THREE_OF_A_KIND 0.0
HIGH_TWO_PAIR 0.024531908
2222: 
STRAIGHT 0.0
HIGH_CARD 0.42266777
FLUSH_1 0.0794269
LOW_TWO_PAIR 0.02464229
HIGH_TWO_PAIR 0.0047785463
5555: 
HIGH_CARD 0.24727719
THREE_OF_A_KIND 0.0
HIGH_TWO_PAIR 0.025698321
FLUSH_1 0.018607443
HIGH_ONE_PAIR 0.28429288
LOW_ONE_PAIR 0.1798418
LOW_TWO_PAIR 0.0
STRAIGHT_1 0.090914555
To server: call 

turn
HEARTS A 

inquire
7777 10420 2000 40 check 
2222 1820 0 40 check 
6666 7560 2000 0 fold 
5555 3680 2000 40 check 
8888 2360 0 40 check 
total pot: 160 

7777: 
STRAIGHT 0.0
LOW_ONE_PAIR 0.0
THREE_OF_A_KIND 0.0
HIGH_CARD 0.0
HIGH_TWO_PAIR 0.0
HIGH_ONE_PAIR 0.0
LOW_TWO_PAIR 0.0
STRAIGHT_1 0.0
FLUSH 0.0
2222: 
FLUSH_1 0.0
STRAIGHT 0.0
HIGH_ONE_PAIR 0.077419356
STRAIGHT_1 0.10537635
FULL_HOUSE_UP 0.0
HIGH_TWO_PAIR 0.0
LOW_TWO_PAIR 0.0
5555: 
HIGH_TWO_PAIR 0.0
HIGH_ONE_PAIR 0.0
THREE_OF_A_KIND 0.0
LOW_TWO_PAIR 0.0
LOW_ONE_PAIR 0.0
HIGH_CARD 0.0
STRAIGHT_1 0.0
FLUSH_1 0.0
To server: call 

river
SPADES 10 

inquire
7777 10420 2000 40 check 
2222 1820 0 40 check 
6666 7560 2000 0 fold 
5555 3680 2000 40 check 
8888 2360 0 40 check 
total pot: 160 

7777: 
HIGH_TWO_PAIR 0.0
THREE_OF_A_KIND 0.0
HIGH_ONE_PAIR 0.0
LOW_TWO_PAIR 0.0
LOW_ONE_PAIR 0.0
STRAIGHT 0.0
FLUSH 0.0
2222: 
STRAIGHT 0.0
LOW_ONE_PAIR 0.0
HIGH_ONE_PAIR 0.0
5555: 
HIGH_TWO_PAIR 0.0
HIGH_ONE_PAIR 0.0
LOW_ONE_PAIR 0.0
FLUSH 0.0
THREE_OF_A_KIND 0.0
LOW_TWO_PAIR 0.0
STRAIGHT 0.0
To server: call 

showdown
common/ 
CLUBS 7 
CLUBS 10 
SPADES 9 
HEARTS A 
SPADES 10 
/common 
1: 2222 CLUBS A DIAMONDS J TWO_PAIR 
2: 7777 DIAMONDS 6 SPADES K ONE_PAIR 
2: 8888 HEARTS 8 DIAMONDS K ONE_PAIR 
3: 5555 DIAMONDS 4 CLUBS 6 ONE_PAIR 

pot-win
2222: 160 

seat
button: 2222 1980 0 
small blind: 7777 10420 2000 
big blind: 8888 2360 0 
5555 3680 2000 
6666 7560 2000 

blind
7777: 20 
8888: 40 

hold
CLUBS A 
SPADES 5 

inquire
7777 10380 2000 40 call 
2222 1940 0 40 call 
6666 7520 2000 40 call 
5555 3640 2000 40 call 
8888 2320 0 40 blind 
total pot: 200 

7777: 
SMALL_PAIR 0.010829926
LOW_SINGLE 0.19416814
SMALL_FLUSH 0.06598765
HIGH_SINGLE 0.09946286
BIG_PAIR 0.01921897
BIG_FLUSH 0.05261039
2222: 
LOW_SINGLE 0.26327237
SMALL_FLUSH 0.16007811
SMALL_PAIR 0.007965943
BIG_PAIR 0.013997114
6666: 
LOW_SINGLE 0.50773805
HIGH_SINGLE 0.1393541
BIG_FLUSH 0.016317047
BIG_PAIR 0.025703011
SMALL_FLUSH 0.13589118
5555: 
LOW_SINGLE 0.39488286
BIG_PAIR 0.03238708
HIGH_SINGLE 0.07204828
BIG_FLUSH 0.005643814
SMALL_FLUSH 0.08464421
SMALL_PAIR 0.030018894
To server: call 

flop
CLUBS 4 
CLUBS J 
SPADES 10 

inquire
7777 10380 2000 40 check 
2222 1940 0 40 call 
6666 7520 2000 40 call 
5555 3640 2000 40 call 
8888 2320 0 40 check 
total pot: 200 

7777: 
LOW_ONE_PAIR 0.31825835
THREE_OF_A_KIND 0.0
HIGH_CARD 0.06347466
STRAIGHT_1 0.0
HIGH_TWO_PAIR 0.024170041
HIGH_ONE_PAIR 0.11911294
2222: 
HIGH_TWO_PAIR 0.005086836
HIGH_CARD 0.3970515
STRAIGHT 0.0
FLUSH_1 0.077753365
LOW_TWO_PAIR 0.026232116
6666: 
HIGH_CARD 0.21552919
THREE_OF_A_KIND 0.009259259
STRAIGHT_1 0.018847227
FLUSH_1 0.0
HIGH_ONE_PAIR 0.16397095
LOW_ONE_PAIR 0.3287322
HIGH_TWO_PAIR 0.0
5555: 
HIGH_CARD 0.23991409
FLUSH_1 0.018053373
LOW_ONE_PAIR 0.17830053
LOW_TWO_PAIR 0.0
STRAIGHT_1 0.10930273
THREE_OF_A_KIND 0.0
HIGH_TWO_PAIR 0.025478084
HIGH_ONE_PAIR 0.2758276
To server: call 

turn
CLUBS 9 

inquire
7777 10380 2000 40 check 
2222 1940 0 40 check 
6666 7520 2000 40 check 
5555 3640 2000 40 check 
8888 2320 0 40 check 
total pot: 200 

7777: 
LOW_TWO_PAIR 0.0
LOW_ONE_PAIR 0.0
STRAIGHT_1 0.0
HIGH_CARD 0.0
STRAIGHT 0.0
HIGH_TWO_PAIR 0.0
HIGH_ONE_PAIR 0.0
FLUSH 0.0
THREE_OF_A_KIND 0.0
2222: 
HIGH_TWO_PAIR 0.0
LOW_TWO_PAIR 0.0
FLUSH_1 0.0
STRAIGHT 0.0
FULL_HOUSE_UP 0.0
STRAIGHT_1 0.096575506
HIGH_ONE_PAIR 0.08327173
6666: 
HIGH_TWO_PAIR 0.0
STRAIGHT_1 0.0
LOW_TWO_PAIR 0.0
FLUSH_1 0.0
THREE_OF_A_KIND 0.0
HIGH_ONE_PAIR 0.0
HIGH_CARD 0.0
FLUSH 0.0
LOW_ONE_PAIR 0.0
5555: 
LOW_ONE_PAIR 0.0
FLUSH_1 0.0
HIGH_CARD 0.0
STRAIGHT_1 0.0
HIGH_ONE_PAIR 0.0
THREE_OF_A_KIND 0.0
HIGH_TWO_PAIR 0.0
LOW_TWO_PAIR 0.0
To server: call 

river
SPADES Q 

inquire
7777 10380 2000 40 check 
2222 1940 0 40 check 
6666 7520 2000 40 check 
5555 3640 2000 40 check 
8888 2320 0 40 check 
total pot: 200 

7777: 
HIGH_ONE_PAIR 0.0
LOW_ONE_PAIR 0.0
HIGH_TWO_PAIR 0.0
FLUSH 0.0
LOW_TWO_PAIR 0.0
THREE_OF_A_KIND 0.0
STRAIGHT 0.0
2222: 
HIGH_ONE_PAIR 0.0
LOW_ONE_PAIR 0.0
STRAIGHT 0.0
6666: 
HIGH_ONE_PAIR 0.0
LOW_TWO_PAIR 0.0
FLUSH 0.0
THREE_OF_A_KIND 0.0
STRAIGHT 0.0
HIGH_TWO_PAIR 0.0
LOW_ONE_PAIR 0.0
5555: 
STRAIGHT 0.0
LOW_TWO_PAIR 0.0
HIGH_ONE_PAIR 0.0
HIGH_TWO_PAIR 0.0
FLUSH 0.0
LOW_ONE_PAIR 0.0
THREE_OF_A_KIND 0.0
To server: fold 

showdown
common/ 
CLUBS 4 
CLUBS J 
SPADES 10 
CLUBS 9 
SPADES Q 
/common 
2: 7777 HEARTS J DIAMONDS 7 ONE_PAIR 
1: 5555 DIAMONDS K CLUBS 5 STRAIGHT 
1: 6666 DIAMONDS 5 SPADES K STRAIGHT 
3: 2222 HEARTS 3 SPADES A HIGH_CARD 

pot-win
5555: 100 
6666: 100 

seat
button: 7777 10380 2000 
small blind: 8888 2320 0 
big blind: 5555 3740 2000 
6666 7620 2000 
2222 1940 0 

blind
8888: 20 
5555: 40 

hold
HEARTS 2 
HEARTS 5 

inquire
7777 10340 2000 40 call 
2222 1900 0 40 call 
6666 7580 2000 40 call 
5555 3700 2000 40 blind 
8888 2300 0 20 blind 
total pot: 180 

7777: 
HIGH_SINGLE 0.098063186
SMALL_FLUSH 0.06505905
LOW_SINGLE 0.20124029
BIG_FLUSH 0.051870037
SMALL_PAIR 0.010677523
BIG_PAIR 0.018948512
2222: 
LOW_SINGLE 0.27346915
BIG_PAIR 0.014084507
SMALL_PAIR 0.007695084
SMALL_FLUSH 0.15463512
6666: 
BIG_PAIR 0.024969364
HIGH_SINGLE 0.13537647
SMALL_FLUSH 0.13201241
BIG_FLUSH 0.015851304
LOW_SINGLE 0.5136448
To server: call 

flop
SPADES 3 
SPADES J 
SPADES 2 

inquire
7777 10340 2000 40 call 
2222 1900 0 40 call 
6666 7580 2000 40 call 
5555 3700 2000 40 check 
8888 2280 0 40 call 
total pot: 200 

7777: 
HIGH_ONE_PAIR 0.116498314
LOW_ONE_PAIR 0.31367597
THREE_OF_A_KIND 0.0
HIGH_CARD 0.062081337
STRAIGHT_1 0.0
HIGH_TWO_PAIR 0.023822034
2222: 
STRAIGHT 0.0
LOW_TWO_PAIR 0.0250258
HIGH_CARD 0.41485888
FLUSH_1 0.07726819
HIGH_TWO_PAIR 0.0048529115
6666: 
LOW_ONE_PAIR 0.32429138
HIGH_CARD 0.23417716
THREE_OF_A_KIND 0.008990898
HIGH_ONE_PAIR 0.15921856
HIGH_TWO_PAIR 0.0
FLUSH_1 0.0
STRAIGHT_1 0.018592622
5555: 
THREE_OF_A_KIND 0.0
HIGH_CARD 0.25861153
HIGH_ONE_PAIR 0.27503562
STRAIGHT_1 0.10551999
HIGH_TWO_PAIR 0.024596335
LOW_TWO_PAIR 0.0
FLUSH_1 0.018001538
LOW_ONE_PAIR 0.17212988
To server: call 

turn
CLUBS K 

inquire
7777 10340 2000 40 check 
2222 1900 0 40 check 
6666 7580 2000 40 check 
5555 3700 2000 40 check 
8888 2280 0 40 check 
total pot: 200 

7777: 
THREE_OF_A_KIND 0.0
HIGH_CARD 0.0
STRAIGHT_1 0.0
STRAIGHT 0.0
HIGH_ONE_PAIR 0.0
HIGH_TWO_PAIR 0.0
LOW_ONE_PAIR 0.0
FLUSH 0.0
LOW_TWO_PAIR 0.0
2222: 
STRAIGHT 0.0
STRAIGHT_1 0.09856676
HIGH_ONE_PAIR 0.08498868
FULL_HOUSE_UP 0.0
HIGH_TWO_PAIR 0.0
FLUSH_1 0.0
LOW_TWO_PAIR 0.0
6666: 
HIGH_TWO_PAIR 0.0
HIGH_ONE_PAIR 0.0
LOW_TWO_PAIR 0.0
FLUSH 0.0
THREE_OF_A_KIND 0.0
FLUSH_1 0.0
LOW_ONE_PAIR 0.0
HIGH_CARD 0.0
STRAIGHT_1 0.0
5555: 
STRAIGHT_1 0.0
HIGH_TWO_PAIR 0.0
LOW_ONE_PAIR 0.0
HIGH_ONE_PAIR 0.0
FLUSH_1 0.0
LOW_TWO_PAIR 0.0
HIGH_CARD 0.0
THREE_OF_A_KIND 0.0
To server: call 

river
HEARTS 10 

inquire
7777 10340 2000 40 check 
2222 1900 0 40 check 
6666 7580 2000 40 check 
5555 3700 2000 40 check 
8888 2280 0 40 check 
total pot: 200 

7777: 
STRAIGHT 0.0
THREE_OF_A_KIND 0.0
HIGH_ONE_PAIR 0.0
LOW_ONE_PAIR 0.0
LOW_TWO_PAIR 0.0
HIGH_TWO_PAIR 0.0
FLUSH 0.0
2222: 
LOW_ONE_PAIR 0.0
STRAIGHT 0.0
HIGH_ONE_PAIR 0.0
6666: 
STRAIGHT 0.0
LOW_ONE_PAIR 0.0
HIGH_ONE_PAIR 0.0
THREE_OF_A_KIND 0.0
HIGH_TWO_PAIR 0.0
FLUSH 0.0
LOW_TWO_PAIR 0.0
5555: 
THREE_OF_A_KIND 0.0
LOW_ONE_PAIR 0.0
STRAIGHT 0.0
HIGH_TWO_PAIR 0.0
LOW_TWO_PAIR 0.0
HIGH_ONE_PAIR 0.0
FLUSH 0.0
To server: call 

showdown
common/ 
SPADES 3 
SPADES J 
SPADES 2 
CLUBS K 
HEARTS 10 
/common 
1: 8888 HEARTS 2 HEARTS 5 ONE_PAIR 
2: 2222 DIAMONDS 7 DIAMONDS Q HIGH_CARD 

pot-win
8888: 200 

seat
button: 8888 2480 0 
small blind: 5555 3700 2000 
big blind: 6666 7580 2000 
2222 1900 0 
7777 10340 2000 

blind
5555: 20 
6666: 40 

hold
DIAMONDS 8 
DIAMONDS 10 

inquire
7777 10300 2000 40 call 
2222 1860 0 40 call 
6666 7540 2000 40 blind 
5555 3680 2000 20 blind 
total pot: 140 

7777: 
BIG_FLUSH 0.052070696
BIG_PAIR 0.019021813
SMALL_PAIR 0.010718829
LOW_SINGLE 0.20201877
SMALL_FLUSH 0.06531073
HIGH_SINGLE 0.09844255
2222: 
BIG_PAIR 0.013602519
SMALL_FLUSH 0.16294585
SMALL_PAIR 0.0074317507
LOW_SINGLE 0.2753483
To server: call 

notify
7777 10300 2000 40 call 
2222 1860 0 40 call 
6666 7540 2000 40 check 
5555 3660 2000 40 call 
8888 2440 0 40 call 
total pot: 200 

flop
CLUBS 3 
DIAMONDS K 
DIAMONDS 9 

inquire
7777 10300 2000 40 check 
2222 1860 0 40 check 
6666 7540 2000 40 check 
5555 3660 2000 40 check 
8888 2440 0 40 call 
total pot: 200 

7777: 
HIGH_ONE_PAIR 0.11604939
HIGH_TWO_PAIR 0.02391419
HIGH_CARD 0.0618421
STRAIGHT_1 0.0
THREE_OF_A_KIND 0.0
LOW_ONE_PAIR 0.31488943
2222: 
STRAIGHT 0.0
HIGH_TWO_PAIR 0.0046309875
HIGH_CARD 0.43296188
LOW_TWO_PAIR 0.023881346
FLUSH_1 0.076871954
6666: 
LOW_ONE_PAIR 0.32258904
HIGH_TWO_PAIR 0.0
HIGH_CARD 0.23294787
STRAIGHT_1 0.018495021
THREE_OF_A_KIND 0.009038343
HIGH_ONE_PAIR 0.1600588
FLUSH_1 0.0
5555: 
HIGH_ONE_PAIR 0.27209407
LOW_TWO_PAIR 0.0
FLUSH_1 0.01780901
THREE_OF_A_KIND 0.0
STRAIGHT_1 0.106660746
HIGH_CARD 0.25584564
HIGH_TWO_PAIR 0.024862243
LOW_ONE_PAIR 0.17399076
To server: call 

turn
SPADES 2 

inquire
7777 10300 2000 40 check 
2222 1860 0 40 check 
6666 7540 2000 40 check 
5555 3660 2000 40 check 
8888 2440 0 40 check 
total pot: 200 

7777: 
THREE_OF_A_KIND 0.0
STRAIGHT_1 0.0
LOW_ONE_PAIR 0.0
HIGH_CARD 0.0
FLUSH 0.0
STRAIGHT 0.0
HIGH_ONE_PAIR 0.0
HIGH_TWO_PAIR 0.0
LOW_TWO_PAIR 0.0
2222: 
HIGH_CARD 0.048987843
FULL_HOUSE_UP 0.0
HIGH_TWO_PAIR 0.0
FLUSH_1 0.0
STRAIGHT 0.0
LOW_TWO_PAIR 0.0
HIGH_ONE_PAIR 0.06842105
STRAIGHT_1 0.07935223
6666: 
LOW_TWO_PAIR 0.0
LOW_ONE_PAIR 0.0
FLUSH 0.0
FLUSH_1 0.0
STRAIGHT_1 0.0
HIGH_TWO_PAIR 0.0
HIGH_CARD 0.0
HIGH_ONE_PAIR 0.0
THREE_OF_A_KIND 0.0
5555: 
HIGH_ONE_PAIR 0.0
LOW_TWO_PAIR 0.0
HIGH_TWO_PAIR 0.0
LOW_ONE_PAIR 0.0
FLUSH_1 0.0
THREE_OF_A_KIND 0.0
STRAIGHT_1 0.0
HIGH_CARD 0.0
To server: call 

river
CLUBS 10 

inquire
7777 10300 2000 40 check 
2222 1860 0 40 check 
6666 7540 2000 40 fold 
5555 3660 2000 40 check 
8888 2440 0 40 check 
total pot: 200 

7777: 
FLUSH 0.0
HIGH_TWO_PAIR 0.0
STRAIGHT 0.0
LOW_ONE_PAIR 0.0
LOW_TWO_PAIR 0.0
HIGH_ONE_PAIR 0.0
THREE_OF_A_KIND 0.0
2222: 
LOW_ONE_PAIR 0.0
STRAIGHT 0.0
HIGH_ONE_PAIR 0.0
5555: 
LOW_TWO_PAIR 0.0
STRAIGHT 0.0
HIGH_TWO_PAIR 0.0
FLUSH 0.0
LOW_ONE_PAIR 0.0
THREE_OF_A_KIND 0.0
HIGH_ONE_PAIR 0.0
To server: call 

showdown
common/ 
CLUBS 3 
DIAMONDS K 
DIAMONDS 9 
SPADES 2 
CLUBS 10 
/common 
1: 5555 HEARTS 3 DIAMONDS 3 THREE_OF_A_KIND 
4: 2222 DIAMONDS 7 SPADES 9 ONE_PAIR 
2: 7777 DIAMONDS 2 CLUBS K TWO_PAIR 
3: 8888 DIAMONDS 8 DIAMONDS 10 ONE_PAIR 

pot-win
5555: 200 

seat
button: 5555 3860 2000 
small blind: 6666 7540 2000 
big blind: 2222 1860 0 
7777 10300 2000 
8888 2440 0 

blind
6666: 20 
2222: 40 

hold
SPADES J 
DIAMONDS 2 

inquire
7777 10260 2000 40 call 
2222 1820 0 40 blind 
6666 7520 2000 20 blind 
total pot: 100 

7777: 
SMALL_PAIR 0.010571676
HIGH_SINGLE 0.09709107
SMALL_FLUSH 0.064414114
BIG_FLUSH 0.051355843
BIG_PAIR 0.018760674
LOW_SINGLE 0.20909175
To server: call 

notify
7777 10260 2000 40 call 
2222 1820 0 40 check 
6666 7520 2000 20 fold 
5555 3820 2000 40 call 
8888 2400 0 40 call 
total pot: 180 

flop
SPADES K 
CLUBS 7 
HEARTS 10 

inquire
7777 10260 2000 40 check 
2222 1820 0 40 check 
6666 7520 2000 20 fold 
5555 3820 2000 40 call 
8888 2400 0 40 call 
total pot: 180 

7777: 
HIGH_ONE_PAIR 0.11353616
STRAIGHT_1 0.0
HIGH_TWO_PAIR 0.023578363
THREE_OF_A_KIND 0.0
HIGH_CARD 0.06050281
LOW_ONE_PAIR 0.31046742
2222: 
FLUSH_1 0.07535373
STRAIGHT 0.0
LOW_TWO_PAIR 0.023378583
HIGH_CARD 0.44227287
HIGH_TWO_PAIR 0.0045334925
5555: 
THREE_OF_A_KIND 0.0
LOW_TWO_PAIR 0.0
HIGH_ONE_PAIR 0.27695438
HIGH_CARD 0.25658002
LOW_ONE_PAIR 0.1636902
FLUSH_1 0.018235072
HIGH_TWO_PAIR 0.023390355
STRAIGHT_1 0.10034624
To server: call 

turn
CLUBS K 

inquire
7777 10260 2000 40 check 
2222 1820 0 40 check 
6666 7520 2000 20 fold 
5555 3820 2000 40 check 
8888 2400 0 40 check 
total pot: 180 

7777: 
HIGH_ONE_PAIR 0.0
STRAIGHT 0.0
STRAIGHT_1 0.0
LOW_TWO_PAIR 0.0
HIGH_CARD 0.0
FLUSH 0.0
LOW_ONE_PAIR 0.0
HIGH_TWO_PAIR 0.0
THREE_OF_A_KIND 0.0
2222: 
STRAIGHT_1 0.07952932
FULL_HOUSE_UP 0.0
LOW_TWO_PAIR 0.0
FLUSH_1 0.0
HIGH_ONE_PAIR 0.07952932
HIGH_CARD 0.049097184
HIGH_TWO_PAIR 0.0
STRAIGHT 0.0
5555: 
LOW_TWO_PAIR 0.0
LOW_ONE_PAIR 0.0
HIGH_CARD 0.0
FLUSH_1 0.0
HIGH_TWO_PAIR 0.0
STRAIGHT_1 0.0
THREE_OF_A_KIND 0.0
HIGH_ONE_PAIR 0.0
To server: call 

river
CLUBS 5 

inquire
7777 10260 2000 40 check 
2222 1820 0 40 check 
6666 7520 2000 20 fold 
5555 3820 2000 40 check 
8888 2400 0 40 check 
total pot: 180 

7777: 
THREE_OF_A_KIND 0.0
HIGH_ONE_PAIR 0.0
FLUSH 0.0
STRAIGHT 0.0
HIGH_TWO_PAIR 0.0
LOW_TWO_PAIR 0.0
LOW_ONE_PAIR 0.0
2222: 
HIGH_ONE_PAIR 0.0
LOW_ONE_PAIR 0.0
STRAIGHT 0.0
5555: 
HIGH_ONE_PAIR 0.0
STRAIGHT 0.0
LOW_TWO_PAIR 0.0
HIGH_TWO_PAIR 0.0
THREE_OF_A_KIND 0.0
LOW_ONE_PAIR 0.0
FLUSH 0.0
To server: call 

showdown
common/ 
SPADES K 
CLUBS 7 
HEARTS 10 
CLUBS K 
CLUBS 5 
/common 
2: 2222 SPADES 8 HEARTS 7 TWO_PAIR 
1: 7777 CLUBS 8 CLUBS 10 FLUSH 
3: 8888 SPADES J DIAMONDS 2 ONE_PAIR 
4: 5555 DIAMONDS 6 HEARTS 4 ONE_PAIR 

pot-win
7777: 180 

seat
button: 6666 7520 2000 
small blind: 2222 1820 0 
big blind: 7777 10440 2000 
8888 2400 0 
5555 3820 2000 

blind
2222: 20 
7777: 40 

hold
CLUBS 8 
SPADES 7 

inquire
7777 10400 2000 40 blind 
2222 1800 0 20 blind 
total pot: 60 

To server: call 

notify
7777 10400 2000 40 check 
2222 1780 0 40 call 
6666 7480 2000 40 call 
5555 3780 2000 40 call 
8888 2360 0 40 call 
total pot: 200 

flop
SPADES A 
SPADES 10 
SPADES 3 

inquire
7777 10400 2000 40 check 
2222 1780 0 40 check 
6666 7480 2000 40 call 
5555 3780 2000 40 call 
8888 2360 0 40 call 
total pot: 200 

7777: 
LOW_ONE_PAIR 0.3009303
HIGH_CARD 0.0602493
HIGH_ONE_PAIR 0.11306043
STRAIGHT_1 0.0
THREE_OF_A_KIND 0.0
HIGH_TWO_PAIR 0.02285407
2222: 
FLUSH_1 0.07373321
STRAIGHT 0.0
HIGH_CARD 0.45199317
HIGH_TWO_PAIR 0.004435998
LOW_TWO_PAIR 0.022875816
6666: 
HIGH_ONE_PAIR 0.16133584
THREE_OF_A_KIND 0.009110457
LOW_ONE_PAIR 0.32003558
STRAIGHT_1 0.018348623
HIGH_TWO_PAIR 0.0
FLUSH_1 0.0
HIGH_CARD 0.23110397
5555: 
HIGH_CARD 0.27271995
LOW_ONE_PAIR 0.16239688
STRAIGHT_1 0.09955341
LOW_TWO_PAIR 0.0
FLUSH_1 0.017717997
THREE_OF_A_KIND 0.0
HIGH_TWO_PAIR 0.023205549
HIGH_ONE_PAIR 0.2707035
To server: call 

turn
HEARTS 9 

inquire
7777 10400 2000 40 check 
2222 1780 0 40 check 
6666 7480 2000 40 check 
5555 3780 2000 40 check 
8888 2360 0 40 check 
total pot: 200 

7777: 
HIGH_ONE_PAIR 0.0
STRAIGHT 0.0
FLUSH 0.0
THREE_OF_A_KIND 0.0
STRAIGHT_1 0.0
HIGH_CARD 0.0
LOW_TWO_PAIR 0.0
LOW_ONE_PAIR 0.0
HIGH_TWO_PAIR 0.0
2222: 
HIGH_ONE_PAIR 0.07977208
STRAIGHT 0.0
LOW_TWO_PAIR 0.0
HIGH_TWO_PAIR 0.0
FLUSH_1 0.0
HIGH_CARD 0.049247045
FULL_HOUSE_UP 0.0
STRAIGHT_1 0.07977208
6666: 
THREE_OF_A_KIND 0.0
LOW_TWO_PAIR 0.0
HIGH_ONE_PAIR 0.0
HIGH_TWO_PAIR 0.0
FLUSH 0.0
LOW_ONE_PAIR 0.0
STRAIGHT_1 0.0
FLUSH_1 0.0
HIGH_CARD 0.0
5555: 
LOW_TWO_PAIR 0.0
HIGH_TWO_PAIR 0.0
LOW_ONE_PAIR 0.0
HIGH_ONE_PAIR 0.0
FLUSH_1 0.0
HIGH_CARD 0.0
STRAIGHT_1 0.0
THREE_OF_A_KIND 0.0
To server: call 

river
CLUBS 5 

inquire
7777 10400 2000 40 fold 
2222 1780 0 40 check 
6666 7480 2000 40 check 
5555 3780 2000 40 check 
8888 2360 0 40 check 
total pot: 200 

2222: 
STRAIGHT 0.0
LOW_ONE_PAIR 0.0
HIGH_ONE_PAIR 0.0
6666: 
LOW_TWO_PAIR 0.0
THREE_OF_A_KIND 0.0
FLUSH 0.0
LOW_ONE_PAIR 0.0
HIGH_TWO_PAIR 0.0
STRAIGHT 0.0
HIGH_ONE_PAIR 0.0
5555: 
FLUSH 0.0
HIGH_TWO_PAIR 0.0
THREE_OF_A_KIND 0.0
LOW_ONE_PAIR 0.0
HIGH_ONE_PAIR 0.0
LOW_TWO_PAIR 0.0
STRAIGHT 0.0
To server: fold 

showdown
common/ 
SPADES A 
SPADES 10 
SPADES 3 
HEARTS 9 
CLUBS 5 
/common 
1: 2222 HEARTS 8 HEARTS A ONE_PAIR 
3: 5555 CLUBS 6 CLUBS 3 ONE_PAIR 
2: 6666 CLUBS 9 HEARTS J ONE_PAIR 

pot-win
2222: 200 

seat
button: 2222 1980 0 
small blind: 7777 10400 2000 
big blind: 8888 2360 0 
5555 3780 2000 
6666 7480 2000 

blind
7777: 20 
8888: 40 

hold
DIAMONDS 4 
DIAMONDS 2 

inquire
7777 10360 2000 40 call 
2222 1940 0 40 call 
6666 7440 2000 40 call 
5555 3740 2000 40 call 
8888 2320 0 40 blind 
total pot: 200 

7777: 
BIG_FLUSH 0.049985103
LOW_SINGLE 0.20351088
SMALL_FLUSH 0.07743692
SMALL_PAIR 0.010289507
BIG_PAIR 0.018259931
HIGH_SINGLE 0.09449962
2222: 
LOW_SINGLE 0.27155036
SMALL_FLUSH 0.17751998
SMALL_PAIR 0.00743488
BIG_PAIR 0.013063974
6666: 
HIGH_SINGLE 0.13509578
LOW_SINGLE 0.5328662
BIG_FLUSH 0.015818438
SMALL_FLUSH 0.13173868
BIG_PAIR 0.024917588
5555: 
BIG_FLUSH 0.0051020416
LOW_SINGLE 0.38831624
SMALL_PAIR 0.043986198
BIG_PAIR 0.029278118
SMALL_FLUSH 0.09082667
HIGH_SINGLE 0.06513208
To server: call 

flop
SPADES 10 
CLUBS A 
DIAMONDS 10 

inquire
7777 10360 2000 40 check 
2222 1940 0 40 call 
6666 7440 2000 40 call 
5555 3740 2000 40 call 
8888 2320 0 40 check 
total pot: 200 

7777: 
HIGH_CARD 0.060018457
HIGH_ONE_PAIR 0.112627245
HIGH_TWO_PAIR 0.02294197
THREE_OF_A_KIND 0.0
LOW_ONE_PAIR 0.30208775
STRAIGHT_1 0.0
2222: 
FLUSH_1 0.05327545
HIGH_TWO_PAIR 0.0034854247
STRAIGHT 0.0
HIGH_CARD 0.30006054
LOW_TWO_PAIR 0.017973857
HIGH_ONE_PAIR 0.07955986
6666: 
THREE_OF_A_KIND 0.00896836
STRAIGHT_1 0.017870793
HIGH_ONE_PAIR 0.15881945
HIGH_TWO_PAIR 0.0
LOW_ONE_PAIR 0.31170133
FLUSH_1 0.0
HIGH_CARD 0.24591894
5555: 
STRAIGHT_1 0.09881032
LOW_TWO_PAIR 0.0
THREE_OF_A_KIND 0.0
HIGH_CARD 0.26504526
LOW_ONE_PAIR 0.17850693
FLUSH_1 0.017219389
HIGH_TWO_PAIR 0.02303234
HIGH_ONE_PAIR 0.26308554
To server: call 

turn
CLUBS 2 

inquire
7777 10360 2000 40 check 
2222 1940 0 40 check 
6666 7440 2000 40 check 
5555 3740 2000 40 check 
8888 2320 0 40 check 
total pot: 200 

7777: 
LOW_ONE_PAIR 0.0
THREE_OF_A_KIND 0.0
STRAIGHT_1 0.0
STRAIGHT 0.0
HIGH_CARD 0.0
FLUSH 0.0
HIGH_TWO_PAIR 0.0
HIGH_ONE_PAIR 0.0
LOW_TWO_PAIR 0.0
2222: 
HIGH_ONE_PAIR 0.10330577
HIGH_TWO_PAIR 0.0
STRAIGHT 0.0
STRAIGHT_1 0.08999081
FLUSH_1 0.0
LOW_TWO_PAIR 0.0
FULL_HOUSE_UP 0.0
6666: 
FLUSH 0.0
LOW_ONE_PAIR 0.0
FLUSH_1 0.0
HIGH_CARD 0.0
LOW_TWO_PAIR 0.0
HIGH_TWO_PAIR 0.0
THREE_OF_A_KIND 0.0
HIGH_ONE_PAIR 0.0
STRAIGHT_1 0.0
5555: 
LOW_ONE_PAIR 0.0
HIGH_ONE_PAIR 0.0
LOW_TWO_PAIR 0.0
FLUSH_1 0.0
STRAIGHT_1 0.0
HIGH_CARD 0.0
HIGH_TWO_PAIR 0.0
THREE_OF_A_KIND 0.0
To server: call 

river
HEARTS J 

inquire
7777 10360 2000 40 check 
2222 1940 0 40 check 
6666 7440 2000 40 check 
5555 3740 2000 40 check 
8888 2320 0 40 check 
total pot: 200 

7777: 
THREE_OF_A_KIND 0.0
LOW_ONE_PAIR 0.0
HIGH_ONE_PAIR 0.0
FLUSH 0.0
LOW_TWO_PAIR 0.0
STRAIGHT 0.0
HIGH_TWO_PAIR 0.0
2222: 
HIGH_ONE_PAIR 0.0
LOW_ONE_PAIR 0.0
STRAIGHT 0.0
6666: 
LOW_TWO_PAIR 0.0
HIGH_TWO_PAIR 0.0
FLUSH 0.0
STRAIGHT 0.0
LOW_ONE_PAIR 0.0
THREE_OF_A_KIND 0.0
HIGH_ONE_PAIR 0.0
5555: 
HIGH_ONE_PAIR 0.0
LOW_ONE_PAIR 0.0
LOW_TWO_PAIR 0.0
FLUSH 0.0
HIGH_TWO_PAIR 0.0
THREE_OF_A_KIND 0.0
STRAIGHT 0.0
To server: call 

showdown
common/ 
SPADES 10 
CLUBS A 
DIAMONDS 10 
CLUBS 2 
HEARTS J 
/common 
3: 7777 HEARTS 8 SPADES K ONE_PAIR 
2: 8888 DIAMONDS 4 DIAMONDS 2 TWO_PAIR 
3: 5555 HEARTS K CLUBS 3 ONE_PAIR 
4: 6666 CLUBS 4 HEARTS 5 ONE_PAIR 
1: 2222 HEARTS A HEARTS 3 TWO_PAIR 

pot-win
2222: 200 

seat
button: 7777 10360 2000 
small blind: 8888 2320 0 
big blind: 5555 3740 2000 
6666 7440 2000 
2222 2140 0 

blind
8888: 20 
5555: 40 

hold
SPADES 3 
DIAMONDS 5 

inquire
7777 10320 2000 40 call 
2222 2100 0 40 call 
6666 7400 2000 40 call 
5555 3700 2000 40 blind 
8888 2300 0 20 blind 
total pot: 180 

7777: 
BIG_FLUSH 0.049327616
HIGH_SINGLE 0.09325661
SMALL_FLUSH 0.07641834
LOW_SINGLE 0.21044637
BIG_PAIR 0.018019749
SMALL_PAIR 0.0101541625
2222: 
SMALL_FLUSH 0.20356165
SMALL_PAIR 0.007929944
LOW_SINGLE 0.24794161
BIG_PAIR 0.011928185
6666: 
BIG_FLUSH 0.015585413
SMALL_FLUSH 0.129798
BIG_PAIR 0.024550524
LOW_SINGLE 0.54493034
HIGH_SINGLE 0.13310564
To server: call 

flop
SPADES A 
DIAMONDS 9 
DIAMONDS A 

inquire
7777 10320 2000 40 call 
2222 2100 0 40 call 
6666 7400 2000 40 call 
5555 3700 2000 40 check 
8888 2280 0 40 call 
total pot: 200 

7777: 
THREE_OF_A_KIND 0.0
STRAIGHT_1 0.0
LOW_ONE_PAIR 0.29802555
HIGH_TWO_PAIR 0.02263347
HIGH_CARD 0.058756813
HIGH_ONE_PAIR 0.110259674
2222: 
HIGH_TWO_PAIR 0.03266287
LOW_TWO_PAIR 0.023831774
STRAIGHT 0.0
HIGH_CARD 0.37479526
FLUSH_1 0.06654452
6666: 
THREE_OF_A_KIND 0.0088325655
HIGH_CARD 0.23961198
LOW_ONE_PAIR 0.30370724
HIGH_ONE_PAIR 0.17578876
STRAIGHT_1 0.017412469
FLUSH_1 0.0
HIGH_TWO_PAIR 0.0
5555: 
HIGH_ONE_PAIR 0.27327874
LOW_TWO_PAIR 0.0
FLUSH_1 0.016738273
STRAIGHT_1 0.09811508
HIGH_CARD 0.2576398
THREE_OF_A_KIND 0.0
LOW_ONE_PAIR 0.17725089
HIGH_TWO_PAIR 0.022870278
To server: call 

turn
SPADES 10 

inquire
7777 10320 2000 40 check 
2222 2100 0 40 check 
6666 7400 2000 40 check 
5555 3700 2000 40 check 
8888 2280 0 40 check 
total pot: 200 

7777: 
HIGH_CARD 0.0
LOW_ONE_PAIR 0.0
HIGH_TWO_PAIR 0.0
THREE_OF_A_KIND 0.0
FLUSH 0.0
LOW_TWO_PAIR 0.0
STRAIGHT 0.0
HIGH_ONE_PAIR 0.0
STRAIGHT_1 0.0
2222: 
FLUSH_1 0.0
STRAIGHT_1 0.08141224
FULL_HOUSE_UP 0.0
HIGH_TWO_PAIR 0.0
STRAIGHT 0.0
HIGH_ONE_PAIR 0.093457945
LOW_TWO_PAIR 0.0
6666: 
FLUSH 0.0
STRAIGHT_1 0.0
HIGH_ONE_PAIR 0.0
FLUSH_1 0.0
THREE_OF_A_KIND 0.0
HIGH_CARD 0.0
LOW_TWO_PAIR 0.0
HIGH_TWO_PAIR 0.0
LOW_ONE_PAIR 0.0
5555: 
STRAIGHT_1 0.0
HIGH_TWO_PAIR 0.0
FLUSH_1 0.0
HIGH_CARD 0.0
THREE_OF_A_KIND 0.0
LOW_ONE_PAIR 0.0
LOW_TWO_PAIR 0.0
HIGH_ONE_PAIR 0.0
To server: call 

river
SPADES Q 

inquire
7777 10320 2000 40 check 
2222 2100 0 40 check 
6666 7400 2000 40 check 
5555 3700 2000 40 check 
8888 2280 0 40 check 
total pot: 200 

7777: 
FLUSH 0.0
LOW_TWO_PAIR 0.0
LOW_ONE_PAIR 0.0
THREE_OF_A_KIND 0.0
HIGH_ONE_PAIR 0.0
HIGH_TWO_PAIR 0.0
STRAIGHT 0.0
2222: 
STRAIGHT 0.0
HIGH_ONE_PAIR 0.0
LOW_ONE_PAIR 0.0
6666: 
LOW_ONE_PAIR 0.0
STRAIGHT 0.0
HIGH_TWO_PAIR 0.0
HIGH_ONE_PAIR 0.0
FLUSH 0.0
THREE_OF_A_KIND 0.0
LOW_TWO_PAIR 0.0
5555: 
HIGH_TWO_PAIR 0.0
LOW_ONE_PAIR 0.0
THREE_OF_A_KIND 0.0
HIGH_ONE_PAIR 0.0
STRAIGHT 0.0
FLUSH 0.0
LOW_TWO_PAIR 0.0
To server: call 

showdown
common/ 
SPADES A 
DIAMONDS 9 
DIAMONDS A 
SPADES 10 
SPADES Q 
/common 
3: 8888 SPADES 3 DIAMONDS 5 ONE_PAIR 
2: 5555 CLUBS 2 DIAMONDS K ONE_PAIR 
3: 6666 DIAMONDS 4 DIAMONDS 2 ONE_PAIR 
3: 2222 CLUBS 7 HEARTS 2 ONE_PAIR 
1: 7777 CLUBS 9 HEARTS 6 TWO_PAIR 

pot-win
7777: 200 

seat
button: 8888 2280 0 
small blind: 5555 3700 2000 
big blind: 6666 7400 2000 
2222 2100 0 
7777 10520 2000 

blind
5555: 20 
6666: 40 

hold
SPADES 2 
DIAMONDS 6 

inquire
7777 10480 2000 40 call 
2222 2060 0 40 call 
6666 7360 2000 40 blind 
5555 3680 2000 20 blind 
total pot: 140 

7777: 
HIGH_SINGLE 0.090307616
BIG_FLUSH 0.047767766
BIG_PAIR 0.017449927
LOW_SINGLE 0.21322773
SMALL_FLUSH 0.07400182
SMALL_PAIR 0.009833068
2222: 
BIG_PAIR 0.011997527
LOW_SINGLE 0.2570439
SMALL_PAIR 0.0076806606
SMALL_FLUSH 0.19716251
To server: call 

notify
7777 10480 2000 40 call 
2222 2060 0 40 call 
6666 7360 2000 40 check 
5555 3660 2000 40 call 
8888 2240 0 40 call 
total pot: 200 

flop
HEARTS 4 
HEARTS 10 
SPADES 9 

inquire
7777 10480 2000 40 check 
2222 2060 0 40 check 
6666 7360 2000 40 check 
5555 3660 2000 40 check 
8888 2240 0 40 call 
total pot: 200 

7777: 
HIGH_TWO_PAIR 0.037083376
STRAIGHT_1 0.0
THREE_OF_A_KIND 0.0
HIGH_CARD 0.058652986
LOW_ONE_PAIR 0.28851843
HIGH_ONE_PAIR 0.11006489
2222: 
LOW_TWO_PAIR 0.01734694
HIGH_TWO_PAIR 0.022894531
HIGH_ONE_PAIR 0.080845155
FLUSH_1 0.048437174
HIGH_CARD 0.27281016
STRAIGHT 0.0
6666: 
STRAIGHT_1 0.016972475
HIGH_ONE_PAIR 0.19235975
HIGH_TWO_PAIR 0.0
THREE_OF_A_KIND 0.008702703
LOW_ONE_PAIR 0.2960329
FLUSH_1 0.0
HIGH_CARD 0.23355724
5555: 
HIGH_TWO_PAIR 0.022718946
HIGH_ONE_PAIR 0.26569465
STRAIGHT_1 0.09746585
THREE_OF_A_KIND 0.0
LOW_ONE_PAIR 0.17607804
LOW_TWO_PAIR 0.0
FLUSH_1 0.01627375
HIGH_CARD 0.25048974
To server: call 

turn
HEARTS 7 

inquire
7777 10480 2000 40 check 
2222 2060 0 40 check 
6666 7360 2000 40 check 
5555 3660 2000 40 check 
8888 2240 0 40 check 
total pot: 200 

7777: 
HIGH_CARD 0.0
HIGH_ONE_PAIR 0.0
STRAIGHT 0.0
STRAIGHT_1 0.0
LOW_ONE_PAIR 0.0
FLUSH 0.0
LOW_TWO_PAIR 0.0
HIGH_TWO_PAIR 0.0
THREE_OF_A_KIND 0.0
2222: 
LOW_TWO_PAIR 0.0
HIGH_ONE_PAIR 0.106004134
STRAIGHT_1 0.08115941
HIGH_TWO_PAIR 0.0
FLUSH_1 0.0
FULL_HOUSE_UP 0.0
STRAIGHT 0.0
6666: 
FLUSH 0.0
HIGH_CARD 0.0
FLUSH_1 0.0
STRAIGHT_1 0.0
LOW_ONE_PAIR 0.0
LOW_TWO_PAIR 0.0
HIGH_TWO_PAIR 0.0
THREE_OF_A_KIND 0.0
HIGH_ONE_PAIR 0.0
5555: 
HIGH_CARD 0.0
HIGH_ONE_PAIR 0.0
STRAIGHT_1 0.0
THREE_OF_A_KIND 0.0
LOW_ONE_PAIR 0.0
HIGH_TWO_PAIR 0.0
LOW_TWO_PAIR 0.0
FLUSH_1 0.0
To server: call 

river
HEARTS A 

inquire
7777 10480 2000 40 fold 
2222 2060 0 40 check 
6666 7360 2000 40 check 
5555 3660 2000 40 check 
8888 2240 0 40 check 
total pot: 200 

2222: 
LOW_ONE_PAIR 0.0
STRAIGHT 0.0
HIGH_ONE_PAIR 0.0
6666: 
HIGH_ONE_PAIR 0.0
FLUSH 0.0
STRAIGHT 0.0
THREE_OF_A_KIND 0.0
LOW_TWO_PAIR 0.0
HIGH_TWO_PAIR 0.0
LOW_ONE_PAIR 0.0
5555: 
HIGH_TWO_PAIR 0.0
THREE_OF_A_KIND 0.0
LOW_ONE_PAIR 0.0
LOW_TWO_PAIR 0.0
STRAIGHT 0.0
HIGH_ONE_PAIR 0.0
FLUSH 0.0
To server: fold 

showdown
common/ 
HEARTS 4 
HEARTS 10 
SPADES 9 
HEARTS 7 
HEARTS A 
/common 
1: 5555 SPADES Q HEARTS 6 FLUSH 
2: 6666 SPADES J SPADES A ONE_PAIR 
3: 2222 SPADES K SPADES 8 HIGH_CARD 

pot-win
5555: 200 

seat
button: 5555 3860 2000 
small blind: 6666 7360 2000 
big blind: 2222 2060 0 
7777 10480 2000 
8888 2240 0 

blind
6666: 20 
2222: 40 

hold
DIAMONDS 2 
HEARTS 4 

inquire
7777 10440 2000 40 call 
2222 2020 0 40 blind 
6666 7340 2000 20 blind 
total pot: 100 

7777: 
BIG_PAIR 0.017516525
BIG_FLUSH 0.047950085
HIGH_SINGLE 0.09065231
SMALL_FLUSH 0.07428427
SMALL_PAIR 0.009870597
LOW_SINGLE 0.2140416
To server: call 

notify
7777 10440 2000 40 call 
2222 2020 0 40 check 
6666 7320 2000 40 call 
5555 3820 2000 40 call 
8888 2200 0 40 call 
total pot: 200 

flop
CLUBS Q 
DIAMONDS Q 
HEARTS 5 

inquire
7777 10440 2000 40 check 
2222 2020 0 40 check 
6666 7320 2000 40 check 
5555 3820 2000 40 call 
8888 2200 0 40 call 
total pot: 200 

7777: 
LOW_ONE_PAIR 0.28961965
STRAIGHT_1 0.0
THREE_OF_A_KIND 0.0
HIGH_TWO_PAIR 0.03722491
HIGH_ONE_PAIR 0.10964637
HIGH_CARD 0.058429968
2222: 
FLUSH_1 0.048511423
HIGH_CARD 0.29114032
STRAIGHT 0.0
HIGH_ONE_PAIR 0.08096909
HIGH_TWO_PAIR 0.02206444
LOW_TWO_PAIR 0.01737353
6666: 
FLUSH_1 0.0
LOW_ONE_PAIR 0.2886595
HIGH_TWO_PAIR 0.0
THREE_OF_A_KIND 0.008578432
HIGH_ONE_PAIR 0.18961293
STRAIGHT_1 0.01654974
HIGH_CARD 0.22773999
5555: 
HIGH_CARD 0.25689256
LOW_ONE_PAIR 0.16591878
FLUSH_1 0.016689727
LOW_TWO_PAIR 0.0
THREE_OF_A_KIND 0.0
HIGH_ONE_PAIR 0.27248612
HIGH_TWO_PAIR 0.021408122
STRAIGHT_1 0.09184232
To server: call 

turn
DIAMONDS A 

inquire
7777 10440 2000 40 check 
2222 2020 0 40 check 
6666 7320 2000 40 check 
5555 3820 2000 40 check 
8888 2200 0 40 check 
total pot: 200 

7777: 
LOW_ONE_PAIR 0.0
HIGH_TWO_PAIR 0.0
HIGH_ONE_PAIR 0.0
FLUSH 0.0
HIGH_CARD 0.0
STRAIGHT_1 0.0
THREE_OF_A_KIND 0.0
STRAIGHT 0.0
LOW_TWO_PAIR 0.0
2222: 
HIGH_TWO_PAIR 0.0
STRAIGHT_1 0.09295601
FULL_HOUSE_UP 0.0
STRAIGHT 0.0
FLUSH_1 0.0
HIGH_ONE_PAIR 0.10576327
LOW_TWO_PAIR 0.0
6666: 
FLUSH_1 0.0
HIGH_ONE_PAIR 0.0
LOW_ONE_PAIR 0.0
THREE_OF_A_KIND 0.0
HIGH_CARD 0.0
STRAIGHT_1 0.0
HIGH_TWO_PAIR 0.0
FLUSH 0.0
LOW_TWO_PAIR 0.0
5555: 
HIGH_ONE_PAIR 0.0
FLUSH_1 0.0
LOW_TWO_PAIR 0.0
STRAIGHT_1 0.0
HIGH_TWO_PAIR 0.0
LOW_ONE_PAIR 0.0
HIGH_CARD 0.0
THREE_OF_A_KIND 0.0
To server: call 

river
SPADES 8 

inquire
7777 10440 2000 40 check 
2222 2020 0 40 check 
6666 7320 2000 40 check 
5555 3820 2000 40 check 
8888 2200 0 40 check 
total pot: 200 

7777: 
HIGH_TWO_PAIR 0.0
FLUSH 0.0
LOW_TWO_PAIR 0.0
LOW_ONE_PAIR 0.0
THREE_OF_A_KIND 0.0
STRAIGHT 0.0
HIGH_ONE_PAIR 0.0
2222: 
LOW_ONE_PAIR 0.0
HIGH_ONE_PAIR 0.0
STRAIGHT 0.0
6666: 
LOW_TWO_PAIR 0.0
THREE_OF_A_KIND 0.0
FLUSH 0.0
HIGH_ONE_PAIR 0.0
LOW_ONE_PAIR 0.0
HIGH_TWO_PAIR 0.0
STRAIGHT 0.0
5555: 
FLUSH 0.0
LOW_TWO_PAIR 0.0
HIGH_ONE_PAIR 0.0
HIGH_TWO_PAIR 0.0
STRAIGHT 0.0
LOW_ONE_PAIR 0.0
THREE_OF_A_KIND 0.0
To server: call 

showdown
common/ 
CLUBS Q 
DIAMONDS Q 
HEARTS 5 
DIAMONDS A 
SPADES 8 
/common 
1: 6666 DIAMONDS 8 SPADES K TWO_PAIR 
4: 2222 HEARTS J DIAMONDS 6 ONE_PAIR 
3: 7777 CLUBS 10 CLUBS J ONE_PAIR 
5: 8888 DIAMONDS 2 HEARTS 4 ONE_PAIR 
2: 5555 DIAMONDS 5 SPADES 6 TWO_PAIR 

pot-win
6666: 200 

seat
button: 6666 7520 2000 
small blind: 2222 2020 0 
big blind: 7777 10440 2000 
8888 2200 0 
5555 3820 2000 

blind
2222: 20 
7777: 40 

hold
SPADES 8 
CLUBS 7 

inquire
7777 10400 2000 40 blind 
2222 2000 0 20 blind 
total pot: 60 

To server: call 

notify
7777 10400 2000 40 check 
2222 1980 0 40 call 
6666 7480 2000 40 call 
5555 3820 2000 0 fold 
8888 2160 0 40 call 
total pot: 160 

flop
CLUBS 4 
DIAMONDS K 
DIAMONDS 5 

inquire
7777 10400 2000 40 check 
2222 1980 0 40 check 
6666 7480 2000 40 call 
5555 3820 2000 0 fold 
8888 2160 0 40 call 
total pot: 160 

7777: 
STRAIGHT_1 0.0
THREE_OF_A_KIND 0.0
HIGH_CARD 0.057236835
HIGH_TWO_PAIR 0.036744747
LOW_ONE_PAIR 0.28588378
HIGH_ONE_PAIR 0.1074074
2222: 
STRAIGHT 0.0
LOW_TWO_PAIR 0.017072346
HIGH_TWO_PAIR 0.02126297
FLUSH_1 0.04861908
HIGH_CARD 0.2917864
HIGH_ONE_PAIR 0.09160938
6666: 
LOW_ONE_PAIR 0.28926295
FLUSH_1 0.0
STRAIGHT_1 0.016584333
HIGH_TWO_PAIR 0.0
HIGH_CARD 0.22821604
HIGH_ONE_PAIR 0.21360868
THREE_OF_A_KIND 0.0082344515
To server: call 

turn
SPADES 10 

inquire
7777 10400 2000 40 check 
2222 1980 0 40 check 
6666 7480 2000 40 check 
5555 3820 2000 0 fold 
8888 2160 0 40 check 
total pot: 160 

7777: 
HIGH_ONE_PAIR 0.0
STRAIGHT 0.0
HIGH_TWO_PAIR 0.0
FLUSH 0.0
LOW_TWO_PAIR 0.0
THREE_OF_A_KIND 0.0
LOW_ONE_PAIR 0.0
HIGH_CARD 0.0
STRAIGHT_1 0.0
2222: 
FLUSH_1 0.0
LOW_TWO_PAIR 0.0
FULL_HOUSE_UP 0.0
STRAIGHT_1 0.0928218
HIGH_TWO_PAIR 0.0
STRAIGHT 0.0
HIGH_ONE_PAIR 0.11922441
6666: 
THREE_OF_A_KIND 0.0
FLUSH_1 0.0
LOW_TWO_PAIR 0.0
FLUSH 0.0
STRAIGHT_1 0.0
LOW_ONE_PAIR 0.0
HIGH_CARD 0.0
HIGH_ONE_PAIR 0.0
HIGH_TWO_PAIR 0.0
To server: call 

river
CLUBS 8 

inquire
7777 10400 2000 40 fold 
2222 1980 0 40 check 
6666 7480 2000 40 check 
5555 3820 2000 0 fold 
8888 2160 0 40 check 
total pot: 160 

2222: 
STRAIGHT 0.0
HIGH_ONE_PAIR 0.0
LOW_ONE_PAIR 0.0
6666: 
FLUSH 0.0
THREE_OF_A_KIND 0.0
STRAIGHT 0.0
LOW_ONE_PAIR 0.0
HIGH_ONE_PAIR 0.0
LOW_TWO_PAIR 0.0
HIGH_TWO_PAIR 0.0
To server: call 

showdown
common/ 
CLUBS 4 
DIAMONDS K 
DIAMONDS 5 
SPADES 10 
CLUBS 8 
/common 
3: 2222 DIAMONDS J HEARTS 4 ONE_PAIR 
2: 8888 SPADES 8 CLUBS 7 ONE_PAIR 
1: 6666 SPADES K CLUBS 6 ONE_PAIR 

pot-win
6666: 160 

seat
button: 2222 1980 0 
small blind: 7777 10400 2000 
big blind: 8888 2160 0 
5555 3820 2000 
6666 7640 2000 

blind
7777: 20 
8888: 40 

hold
DIAMONDS 4 
CLUBS 7 

inquire
7777 10360 2000 40 call 
2222 1940 0 40 call 
6666 7600 2000 40 call 
5555 3780 2000 40 call 
8888 2120 0 40 blind 
total pot: 200 

7777: 
HIGH_SINGLE 0.0898521
BIG_PAIR 0.017361904
LOW_SINGLE 0.21215218
BIG_FLUSH 0.06402533
SMALL_FLUSH 0.073628545
SMALL_PAIR 0.009783465
2222: 
SMALL_PAIR 0.0069701998
SMALL_FLUSH 0.1907107
LOW_SINGLE 0.2799254
BIG_PAIR 0.012247475
6666: 
SMALL_FLUSH 0.13377221
HIGH_SINGLE 0.12001963
BIG_FLUSH 0.031619623
LOW_SINGLE 0.5271342
BIG_PAIR 0.022136888
5555: 
SMALL_PAIR 0.040623903
BIG_FLUSH 0.0047120424
SMALL_FLUSH 0.083883904
LOW_SINGLE 0.41740748
BIG_PAIR 0.027040105
HIGH_SINGLE 0.0601534
To server: call 

flop
SPADES K 
DIAMONDS Q 
DIAMONDS 5 

inquire
7777 10360 2000 40 check 
2222 1940 0 40 call 
6666 7600 2000 40 call 
5555 3780 2000 40 call 
8888 2120 0 40 check 
total pot: 200 

7777: 
HIGH_ONE_PAIR 0.10699587
STRAIGHT_1 0.0
LOW_ONE_PAIR 0.28698337
THREE_OF_A_KIND 0.0
HIGH_TWO_PAIR 0.036886074
HIGH_CARD 0.05701753
2222: 
HIGH_ONE_PAIR 0.09346005
FLUSH_1 0.049601283
STRAIGHT 0.0
LOW_TWO_PAIR 0.01673428
HIGH_TWO_PAIR 0.020841919
HIGH_CARD 0.2976811
6666: 
HIGH_TWO_PAIR 0.0
THREE_OF_A_KIND 0.007952188
STRAIGHT_1 0.01653107
HIGH_ONE_PAIR 0.22441484
FLUSH_1 0.0
HIGH_CARD 0.22748311
LOW_ONE_PAIR 0.28833392
5555: 
HIGH_CARD 0.24999328
STRAIGHT_1 0.0912573
FLUSH_1 0.016241496
LOW_ONE_PAIR 0.1648619
HIGH_ONE_PAIR 0.26516807
THREE_OF_A_KIND 0.0
LOW_TWO_PAIR 0.0
HIGH_TWO_PAIR 0.033119693
To server: call 

turn
CLUBS Q 

inquire
7777 10360 2000 40 check 
2222 1940 0 40 check 
6666 7600 2000 40 check 
5555 3780 2000 40 check 
8888 2120 0 40 check 
total pot: 200 

7777: 
THREE_OF_A_KIND 0.0
STRAIGHT_1 0.0
HIGH_ONE_PAIR 0.0
LOW_TWO_PAIR 0.0
HIGH_TWO_PAIR 0.0
HIGH_CARD 0.0
LOW_ONE_PAIR 0.0
FLUSH 0.0
STRAIGHT 0.0
2222: 
HIGH_TWO_PAIR 0.0
FLUSH_1 0.0
LOW_TWO_PAIR 0.0
HIGH_ONE_PAIR 0.121633016
FULL_HOUSE_UP 0.0
STRAIGHT_1 0.09469696
STRAIGHT 0.0
6666: 
HIGH_ONE_PAIR 0.0
FLUSH_1 0.0
HIGH_CARD 0.0
LOW_TWO_PAIR 0.0
LOW_ONE_PAIR 0.0
HIGH_TWO_PAIR 0.0
THREE_OF_A_KIND 0.0
FLUSH 0.0
STRAIGHT_1 0.0
5555: 
LOW_ONE_PAIR 0.0
STRAIGHT_1 0.0
FLUSH_1 0.0
HIGH_TWO_PAIR 0.0
HIGH_CARD 0.0
HIGH_ONE_PAIR 0.0
LOW_TWO_PAIR 0.0
THREE_OF_A_KIND 0.0
To server: call 

river
SPADES 8 

inquire
7777 10360 2000 40 check 
2222 1940 0 40 check 
6666 7600 2000 40 check 
5555 3780 2000 40 check 
8888 2120 0 40 check 
total pot: 200 

7777: 
HIGH_TWO_PAIR 0.0
THREE_OF_A_KIND 0.0
HIGH_ONE_PAIR 0.0
LOW_TWO_PAIR 0.0
STRAIGHT 0.0
LOW_ONE_PAIR 0.0
FLUSH 0.0
2222: 
HIGH_ONE_PAIR 0.0
LOW_ONE_PAIR 0.0
STRAIGHT 0.0
6666: 
FLUSH 0.0
HIGH_TWO_PAIR 0.0
STRAIGHT 0.0
HIGH_ONE_PAIR 0.0
LOW_ONE_PAIR 0.0
THREE_OF_A_KIND 0.0
LOW_TWO_PAIR 0.0
5555: 
FLUSH 0.0
THREE_OF_A_KIND 0.0
LOW_TWO_PAIR 0.0
HIGH_TWO_PAIR 0.0
LOW_ONE_PAIR 0.0
HIGH_ONE_PAIR 0.0
STRAIGHT 0.0
To server: call 

showdown
common/ 
SPADES K 
DIAMONDS Q 
DIAMONDS 5 
CLUBS Q 
SPADES 8 
/common 
3: 7777 HEARTS 7 DIAMONDS 6 ONE_PAIR 
3: 8888 DIAMONDS 4 CLUBS 7 ONE_PAIR 
3: 5555 SPADES 6 SPADES 7 ONE_PAIR 
1: 6666 CLUBS K HEARTS 8 TWO_PAIR 
2: 2222 HEARTS 10 CLUBS J ONE_PAIR 

pot-win
6666: 200 

seat
button: 7777 10360 2000 
small blind: 8888 2120 0 
big blind: 5555 3780 2000 
6666 7800 2000 
2222 1940 0 

blind
8888: 20 
5555: 40 

hold
CLUBS 7 
DIAMONDS 3 

inquire
7777 10320 2000 40 call 
2222 1900 0 40 call 
6666 7760 2000 40 call 
5555 3740 2000 40 blind 
8888 2100 0 20 blind 
total pot: 180 

7777: 
LOW_SINGLE 0.21894594
BIG_PAIR 0.017147826
HIGH_SINGLE 0.08874419
SMALL_FLUSH 0.072720684
SMALL_PAIR 0.009662832
BIG_FLUSH 0.06323587
2222: 
LOW_SINGLE 0.285697
SMALL_PAIR 0.006829387
SMALL_FLUSH 0.18685794
BIG_PAIR 0.0125
6666: 
BIG_FLUSH 0.030407902
SMALL_FLUSH 0.12864582
LOW_SINGLE 0.52453095
HIGH_SINGLE 0.11542028
BIG_PAIR 0.021288564
To server: call 

flop
HEARTS Q 
HEARTS 5 
CLUBS 8 

inquire
7777 10320 2000 40 call 
2222 1900 0 40 call 
6666 7760 2000 40 call 
5555 3740 2000 40 check 
8888 2080 0 40 call 
total pot: 200 

7777: 
THREE_OF_A_KIND 0.0
LOW_ONE_PAIR 0.28336856
HIGH_TWO_PAIR 0.036421463
HIGH_CARD 0.055867117
HIGH_ONE_PAIR 0.10483707
STRAIGHT_1 0.0
2222: 
LOW_TWO_PAIR 0.016396213
STRAIGHT 0.0
HIGH_CARD 0.30381882
FLUSH_1 0.050623987
HIGH_TWO_PAIR 0.020420872
HIGH_ONE_PAIR 0.09538708
6666: 
FLUSH_1 0.0
HIGH_ONE_PAIR 0.23342226
HIGH_TWO_PAIR 0.0
STRAIGHT_1 0.016564729
LOW_ONE_PAIR 0.288921
THREE_OF_A_KIND 0.007644824
HIGH_CARD 0.22794627
5555: 
LOW_TWO_PAIR 0.0
HIGH_ONE_PAIR 0.25808993
FLUSH_1 0.015807962
HIGH_TWO_PAIR 0.03292147
THREE_OF_A_KIND 0.0
LOW_ONE_PAIR 0.1638752
STRAIGHT_1 0.09071112
HIGH_CARD 0.25971368
To server: call 

turn
SPADES 7 

inquire
7777 10320 2000 40 check 
2222 1900 0 40 check 
6666 7760 2000 40 check 
5555 3740 2000 40 check 
8888 2080 0 40 check 
total pot: 200 

7777: 
LOW_TWO_PAIR 0.0
HIGH_CARD 0.0
THREE_OF_A_KIND 0.0
HIGH_ONE_PAIR 0.0
STRAIGHT 0.0
FLUSH 0.0
HIGH_TWO_PAIR 0.0
STRAIGHT_1 0.0
LOW_ONE_PAIR 0.0
2222: 
LOW_TWO_PAIR 0.0
STRAIGHT_1 0.07731959
FLUSH_1 0.0
FULL_HOUSE_UP 0.0
STRAIGHT 0.0
HIGH_ONE_PAIR 0.111340195
HIGH_CARD 0.041580755
HIGH_TWO_PAIR 0.0
6666: 
FLUSH_1 0.0
HIGH_ONE_PAIR 0.0
LOW_TWO_PAIR 0.0
FLUSH 0.0
HIGH_CARD 0.0
HIGH_TWO_PAIR 0.0
STRAIGHT_1 0.0
THREE_OF_A_KIND 0.0
LOW_ONE_PAIR 0.0
5555: 
HIGH_CARD 0.0
HIGH_ONE_PAIR 0.0
HIGH_TWO_PAIR 0.0
FLUSH_1 0.0
THREE_OF_A_KIND 0.0
STRAIGHT_1 0.0
LOW_TWO_PAIR 0.0
LOW_ONE_PAIR 0.0
To server: call 

river
HEARTS 10 

inquire
7777 10320 2000 40 check 
2222 1900 0 40 check 
6666 7760 2000 40 check 
5555 3740 2000 40 check 
8888 2080 0 40 check 
total pot: 200 

7777: 
FLUSH 0.0
LOW_TWO_PAIR 0.0
THREE_OF_A_KIND 0.0
HIGH_ONE_PAIR 0.0
HIGH_TWO_PAIR 0.0
LOW_ONE_PAIR 0.0
STRAIGHT 0.0
2222: 
HIGH_ONE_PAIR 0.0
LOW_ONE_PAIR 0.0
STRAIGHT 0.0
6666: 
FLUSH 0.0
STRAIGHT 0.0
LOW_ONE_PAIR 0.0
HIGH_TWO_PAIR 0.0
HIGH_ONE_PAIR 0.0
LOW_TWO_PAIR 0.0
THREE_OF_A_KIND 0.0
5555: 
THREE_OF_A_KIND 0.0
HIGH_ONE_PAIR 0.0
FLUSH 0.0
LOW_ONE_PAIR 0.0
LOW_TWO_PAIR 0.0
STRAIGHT 0.0
HIGH_TWO_PAIR 0.0
To server: call 

showdown
common/ 
HEARTS Q 
HEARTS 5 
CLUBS 8 
SPADES 7 
HEARTS 10 
/common 
3: 8888 CLUBS 7 DIAMONDS 3 ONE_PAIR 
2: 5555 HEARTS 8 DIAMONDS 5 TWO_PAIR 
1: 6666 SPADES 10 SPADES 5 TWO_PAIR 
4: 2222 HEARTS 6 SPADES A HIGH_CARD 
3: 7777 DIAMONDS 7 HEARTS 3 ONE_PAIR 

pot-win
6666: 200 

seat
button: 8888 2080 0 
small blind: 5555 3740 2000 
big blind: 6666 7960 2000 
2222 1900 0 
7777 10320 2000 

blind
5555: 20 
6666: 40 

hold
CLUBS Q 
SPADES 7 

inquire
7777 10280 2000 40 call 
2222 1860 0 40 call 
6666 7920 2000 40 blind 
5555 3720 2000 20 blind 
total pot: 140 

7777: 
BIG_PAIR 0.016941048
BIG_FLUSH 0.062473338
SMALL_PAIR 0.009546314
LOW_SINGLE 0.22571816
HIGH_SINGLE 0.08767407
SMALL_FLUSH 0.07184377
2222: 
BIG_PAIR 0.012091128
LOW_SINGLE 0.29622433
SMALL_PAIR 0.0066060005
SMALL_FLUSH 0.18074587
To server: call 

notify
7777 10280 2000 40 call 
2222 1860 0 40 call 
6666 7920 2000 40 check 
5555 3700 2000 40 call 
8888 2040 0 40 call 
total pot: 200 

flop
HEARTS 2 
HEARTS 10 
SPADES Q 

inquire
7777 10280 2000 40 check 
2222 1860 0 40 check 
6666 7920 2000 40 check 
5555 3700 2000 40 check 
8888 2040 0 40 call 
total pot: 200 

7777: 
THREE_OF_A_KIND 0.0
HIGH_ONE_PAIR 0.10274792
HIGH_TWO_PAIR 0.035972912
HIGH_CARD 0.07088285
LOW_ONE_PAIR 0.27987874
STRAIGHT_1 0.0
2222: 
STRAIGHT 0.0
LOW_TWO_PAIR 0.015785975
FLUSH_1 0.050813664
HIGH_CARD 0.31871477
HIGH_TWO_PAIR 0.01966084
HIGH_ONE_PAIR 0.09574445
6666: 
HIGH_CARD 0.2283926
HIGH_TWO_PAIR 0.0
THREE_OF_A_KIND 0.007354956
FLUSH_1 0.0
STRAIGHT_1 0.016597165
LOW_ONE_PAIR 0.30813712
HIGH_ONE_PAIR 0.22457163
5555: 
HIGH_TWO_PAIR 0.032736905
HIGH_CARD 0.2528208
LOW_TWO_PAIR 0.0
THREE_OF_A_KIND 0.0
LOW_ONE_PAIR 0.16295646
FLUSH_1 0.0153884115
STRAIGHT_1 0.09020257
HIGH_ONE_PAIR 0.25124013
To server: call 

turn
SPADES 9 

inquire
7777 10280 2000 40 check 
2222 1860 0 40 check 
6666 7920 2000 40 check 
5555 3700 2000 40 check 
8888 2040 0 40 check 
total pot: 200 

7777: 
STRAIGHT 0.0
HIGH_ONE_PAIR 0.0
STRAIGHT_1 0.0
HIGH_TWO_PAIR 0.0
LOW_TWO_PAIR 0.0
LOW_ONE_PAIR 0.0
THREE_OF_A_KIND 0.0
FLUSH 0.0
HIGH_CARD 0.0
2222: 
HIGH_ONE_PAIR 0.111820534
FLUSH_1 0.0
STRAIGHT_1 0.08835203
STRAIGHT 0.0
LOW_TWO_PAIR 0.0
HIGH_TWO_PAIR 0.0
FULL_HOUSE_UP 0.0
HIGH_CARD 0.041760128
6666: 
FLUSH_1 0.0
FLUSH 0.0
LOW_TWO_PAIR 0.0
HIGH_ONE_PAIR 0.0
LOW_ONE_PAIR 0.0
STRAIGHT_1 0.0
HIGH_CARD 0.0
HIGH_TWO_PAIR 0.0
THREE_OF_A_KIND 0.0
5555: 
HIGH_CARD 0.0
HIGH_ONE_PAIR 0.0
HIGH_TWO_PAIR 0.0
LOW_ONE_PAIR 0.0
FLUSH_1 0.0
STRAIGHT_1 0.0
LOW_TWO_PAIR 0.0
THREE_OF_A_KIND 0.0
To server: call 

river
SPADES K 

inquire
7777 10280 2000 40 check 
2222 1860 0 40 check 
6666 7920 2000 40 fold 
5555 3700 2000 40 check 
8888 2040 0 40 check 
total pot: 200 

7777: 
LOW_ONE_PAIR 0.0
FLUSH 0.0
HIGH_TWO_PAIR 0.0
LOW_TWO_PAIR 0.0
HIGH_ONE_PAIR 0.0
THREE_OF_A_KIND 0.0
STRAIGHT 0.0
2222: 
HIGH_CARD 0.086351454
STRAIGHT 0.0
HIGH_ONE_PAIR 0.0
LOW_ONE_PAIR 0.0
5555: 
HIGH_TWO_PAIR 0.0
THREE_OF_A_KIND 0.0
LOW_TWO_PAIR 0.0
LOW_ONE_PAIR 0.0
HIGH_ONE_PAIR 0.0
FLUSH 0.0
STRAIGHT 0.0
To server: call 

showdown
common/ 
HEARTS 2 
HEARTS 10 
SPADES Q 
SPADES 9 
SPADES K 
/common 
2: 5555 CLUBS K SPADES 8 ONE_PAIR 
4: 2222 HEARTS 5 CLUBS 7 HIGH_CARD 
1: 7777 HEARTS 8 SPADES J STRAIGHT 
3: 8888 CLUBS Q SPADES 7 ONE_PAIR 

pot-win
7777: 200 

seat
button: 5555 3700 2000 
small blind: 6666 7920 2000 
big blind: 2222 1860 0 
7777 10480 2000 
8888 2040 0 

blind
6666: 20 
2222: 40 

hold
SPADES Q 
HEARTS J 

inquire
7777 10440 2000 40 call 
2222 1820 0 40 blind 
6666 7900 2000 20 blind 
total pot: 100 

7777: 
SMALL_FLUSH 0.0696415
LOW_SINGLE 0.22803143
BIG_PAIR 0.016421743
BIG_FLUSH 0.060558304
SMALL_PAIR 0.009253684
HIGH_SINGLE 0.08498654
To server: call 

notify
7777 10440 2000 40 call 
2222 1820 0 40 check 
6666 7880 2000 40 call 
5555 3660 2000 40 call 
8888 2000 0 40 call 
total pot: 200 

flop
SPADES 3 
DIAMONDS 9 
HEARTS 6 

inquire
7777 10440 2000 40 check 
2222 1820 0 40 check 
6666 7880 2000 40 check 
5555 3660 2000 40 call 
8888 2000 0 40 call 
total pot: 200 

7777: 
HIGH_ONE_PAIR 0.102684684
HIGH_CARD 0.07083925
LOW_ONE_PAIR 0.27123109
HIGH_TWO_PAIR 0.034861423
THREE_OF_A_KIND 0.0
STRAIGHT_1 0.0
2222: 
FLUSH_1 0.048979923
HIGH_CARD 0.3398392
LOW_TWO_PAIR 0.015196079
HIGH_ONE_PAIR 0.09617343
HIGH_TWO_PAIR 0.018926147
STRAIGHT 0.0
6666: 
HIGH_TWO_PAIR 0.0
STRAIGHT_1 0.016513761
FLUSH_1 0.0
HIGH_ONE_PAIR 0.22570582
THREE_OF_A_KIND 0.007392103
LOW_ONE_PAIR 0.3065887
HIGH_CARD 0.2272449
5555: 
HIGH_TWO_PAIR 0.032565568
HIGH_ONE_PAIR 0.24460778
LOW_TWO_PAIR 0.0
FLUSH_1 0.014982182
STRAIGHT_1 0.089730464
HIGH_CARD 0.24614672
THREE_OF_A_KIND 0.0
LOW_ONE_PAIR 0.1621036
To server: call 

turn
HEARTS 5 

inquire
7777 10440 2000 40 check 
2222 1820 0 40 check 
6666 7880 2000 40 check 
5555 3660 2000 40 check 
8888 2000 0 40 check 
total pot: 200 

7777: 
STRAIGHT_1 0.0
LOW_ONE_PAIR 0.0
THREE_OF_A_KIND 0.0
STRAIGHT 0.0
HIGH_TWO_PAIR 0.0
FLUSH 0.0
HIGH_ONE_PAIR 0.0
HIGH_CARD 0.0
LOW_TWO_PAIR 0.0
2222: 
FLUSH_1 0.0
HIGH_CARD 0.04994797
STRAIGHT_1 0.0887964
HIGH_TWO_PAIR 0.0
STRAIGHT 0.0
HIGH_ONE_PAIR 0.11238293
LOW_TWO_PAIR 0.0
FULL_HOUSE_UP 0.0
6666: 
FLUSH 0.0
THREE_OF_A_KIND 0.0
STRAIGHT_1 0.0
LOW_ONE_PAIR 0.0
LOW_TWO_PAIR 0.0
HIGH_ONE_PAIR 0.0
FLUSH_1 0.0
HIGH_TWO_PAIR 0.0
HIGH_CARD 0.0
5555: 
HIGH_TWO_PAIR 0.0
HIGH_CARD 0.0
HIGH_ONE_PAIR 0.0
LOW_TWO_PAIR 0.0
STRAIGHT_1 0.0
LOW_ONE_PAIR 0.0
THREE_OF_A_KIND 0.0
FLUSH_1 0.0
To server: call 

river
CLUBS Q 

inquire
7777 10440 2000 40 check 
2222 1820 0 40 check 
6666 7880 2000 40 check 
5555 3660 2000 40 check 
8888 2000 0 40 check 
total pot: 200 

7777: 
FLUSH 0.0
THREE_OF_A_KIND 0.0
HIGH_TWO_PAIR 0.0
LOW_TWO_PAIR 0.0
HIGH_ONE_PAIR 0.0
STRAIGHT 0.0
LOW_ONE_PAIR 0.0
2222: 
STRAIGHT 0.0
HIGH_CARD 0.09480287
HIGH_ONE_PAIR 0.0
LOW_ONE_PAIR 0.0
6666: 
HIGH_TWO_PAIR 0.0
LOW_ONE_PAIR 0.0
THREE_OF_A_KIND 0.0
STRAIGHT 0.0
FLUSH 0.0
HIGH_ONE_PAIR 0.0
LOW_TWO_PAIR 0.0
5555: 
HIGH_ONE_PAIR 0.0
LOW_ONE_PAIR 0.0
STRAIGHT 0.0
FLUSH 0.0
HIGH_TWO_PAIR 0.0
LOW_TWO_PAIR 0.0
THREE_OF_A_KIND 0.0
To server: call 

showdown
common/ 
SPADES 3 
DIAMONDS 9 
HEARTS 6 
HEARTS 5 
CLUBS Q 
/common 
3: 6666 DIAMONDS 5 DIAMONDS 10 ONE_PAIR 
4: 2222 DIAMONDS J DIAMONDS K HIGH_CARD 
1: 7777 HEARTS 7 DIAMONDS 4 STRAIGHT 
2: 8888 SPADES Q HEARTS J ONE_PAIR 

pot-win
7777: 200 

seat
button: 6666 7880 2000 
small blind: 2222 1820 0 
big blind: 7777 10640 2000 
8888 2000 0 
5555 3660 2000 

blind
2222: 20 
7777: 40 

hold
DIAMONDS J 
HEARTS 5 

inquire
7777 10600 2000 40 blind 
2222 1800 0 20 blind 
total pot: 60 

To server: call 

notify
7777 10600 2000 40 check 
2222 1780 0 40 call 
6666 7840 2000 40 call 
5555 3620 2000 40 call 
8888 1960 0 40 call 
total pot: 200 

flop
CLUBS 4 
CLUBS A 
DIAMONDS 10 

inquire
7777 10600 2000 40 check 
2222 1780 0 40 check 
6666 7840 2000 40 call 
5555 3620 2000 40 call 
8888 1960 0 40 call 
total pot: 200 

7777: 
HIGH_CARD 0.070797
STRAIGHT_1 0.0
HIGH_TWO_PAIR 0.033800676
THREE_OF_A_KIND 0.0
HIGH_ONE_PAIR 0.10262346
LOW_ONE_PAIR 0.26297817
2222: 
HIGH_ONE_PAIR 0.09667585
STRAIGHT 0.0
LOW_TWO_PAIR 0.014625522
FLUSH_1 0.047140907
HIGH_CARD 0.36200514
HIGH_TWO_PAIR 0.018215539
6666: 
FLUSH_1 0.0
HIGH_ONE_PAIR 0.22280061
HIGH_CARD 0.22205976
LOW_ONE_PAIR 0.29959315
STRAIGHT_1 0.01613696
HIGH_TWO_PAIR 0.0
THREE_OF_A_KIND 0.007296954
5555: 
LOW_TWO_PAIR 0.0
STRAIGHT_1 0.090711124
THREE_OF_A_KIND 0.0
HIGH_CARD 0.24348569
FLUSH_1 0.014820214
HIGH_TWO_PAIR 0.032921474
HIGH_ONE_PAIR 0.24196339
LOW_ONE_PAIR 0.1638752
To server: call 

turn
CLUBS 8 

inquire
7777 10600 2000 40 check 
2222 1780 0 40 check 
6666 7840 2000 40 check 
5555 3620 2000 40 check 
8888 1960 0 40 check 
total pot: 200 

7777: 
LOW_ONE_PAIR 0.0
LOW_TWO_PAIR 0.0
FLUSH 0.0
STRAIGHT_1 0.0
THREE_OF_A_KIND 0.0
STRAIGHT 0.0
HIGH_CARD 0.0
HIGH_TWO_PAIR 0.0
HIGH_ONE_PAIR 0.0
2222: 
FLUSH_1 0.0
FULL_HOUSE_UP 0.0
STRAIGHT_1 0.08930751
HIGH_ONE_PAIR 0.11302984
LOW_TWO_PAIR 0.0
STRAIGHT 0.0
HIGH_TWO_PAIR 0.0
HIGH_CARD 0.05895691
6666: 
LOW_ONE_PAIR 0.0
STRAIGHT_1 0.0
FLUSH 0.0
THREE_OF_A_KIND 0.0
LOW_TWO_PAIR 0.0
HIGH_CARD 0.0
FLUSH_1 0.0
HIGH_ONE_PAIR 0.0
HIGH_TWO_PAIR 0.0
5555: 
HIGH_CARD 0.0
LOW_TWO_PAIR 0.0
LOW_ONE_PAIR 0.0
THREE_OF_A_KIND 0.0
HIGH_ONE_PAIR 0.0
STRAIGHT_1 0.0
HIGH_TWO_PAIR 0.0
FLUSH_1 0.0
To server: call 

river
SPADES J 

inquire
7777 10600 2000 40 check 
2222 1780 0 40 check 
6666 7840 2000 40 check 
5555 3620 2000 40 check 
8888 1960 0 40 check 
total pot: 200 

7777: 
THREE_OF_A_KIND 0.0
HIGH_ONE_PAIR 0.0
STRAIGHT 0.0
HIGH_TWO_PAIR 0.0
FLUSH 0.0
LOW_ONE_PAIR 0.0
LOW_TWO_PAIR 0.0
2222: 
STRAIGHT 0.0
HIGH_ONE_PAIR 0.0
HIGH_CARD 0.10376508
LOW_ONE_PAIR 0.0
6666: 
THREE_OF_A_KIND 0.0
FLUSH 0.0
LOW_ONE_PAIR 0.0
HIGH_ONE_PAIR 0.0
LOW_TWO_PAIR 0.0
STRAIGHT 0.0
HIGH_TWO_PAIR 0.0
5555: 
LOW_ONE_PAIR 0.0
STRAIGHT 0.0
LOW_TWO_PAIR 0.0
FLUSH 0.0
HIGH_TWO_PAIR 0.0
THREE_OF_A_KIND 0.0
HIGH_ONE_PAIR 0.0
To server: call 

showdown
common/ 
CLUBS 4 
CLUBS A 
DIAMONDS 10 
CLUBS 8 
SPADES J 
/common 
1: 2222 HEARTS J HEARTS 4 TWO_PAIR 
2: 7777 SPADES 7 SPADES A ONE_PAIR 
3: 8888 DIAMONDS J HEARTS 5 ONE_PAIR 
4: 5555 CLUBS 5 DIAMONDS 5 ONE_PAIR 

pot-win
2222: 200 

seat
button: 2222 1980 0 
small blind: 7777 10600 2000 
big blind: 8888 1960 0 
5555 3620 2000 
6666 7840 2000 

blind
7777: 20 
8888: 40 

hold
SPADES 8 
CLUBS 3 

inquire
7777 10560 2000 40 call 
2222 1940 0 40 call 
6666 7800 2000 40 call 
5555 3580 2000 40 call 
8888 1920 0 40 blind 
total pot: 200 

7777: 
SMALL_FLUSH 0.087205425
LOW_SINGLE 0.2276096
SMALL_PAIR 0.008871686
BIG_PAIR 0.015743844
BIG_FLUSH 0.058058415
HIGH_SINGLE 0.08147823
2222: 
SMALL_FLUSH 0.19458055
SMALL_PAIR 0.0066382857
LOW_SINGLE 0.28162825
BIG_PAIR 0.011664262
BIG_FLUSH 0.0
6666: 
HIGH_SINGLE 0.11080223
BIG_PAIR 0.020436794
SMALL_FLUSH 0.1559383
BIG_FLUSH 0.02919126
LOW_SINGLE 0.50354403
5555: 
SMALL_FLUSH 0.09645827
SMALL_PAIR 0.055702135
HIGH_SINGLE 0.059509493
BIG_FLUSH 0.004661603
BIG_PAIR 0.02675066
LOW_SINGLE 0.4423448
To server: fold 

flop
HEARTS 3 
SPADES 10 
DIAMONDS 9 

notify
7777 10560 2000 40 check 
2222 1940 0 40 call 
6666 7800 2000 40 call 
5555 3580 2000 40 call 
8888 1920 0 40 fold 
total pot: 200 

turn
HEARTS 2 

notify
7777 10560 2000 40 check 
2222 1940 0 40 check 
6666 7800 2000 40 check 
5555 3580 2000 40 check 
8888 1920 0 40 fold 
total pot: 200 

river
CLUBS K 

notify
7777 10560 2000 40 check 
2222 1940 0 40 check 
6666 7800 2000 40 check 
5555 3580 2000 40 check 
8888 1920 0 40 fold 
total pot: 200 

showdown
common/ 
HEARTS 3 
SPADES 10 
DIAMONDS 9 
HEARTS 2 
CLUBS K 
/common 
2: 7777 SPADES 7 HEARTS 9 ONE_PAIR 
1: 5555 HEARTS 10 DIAMONDS 6 ONE_PAIR 
3: 2222 HEARTS 7 HEARTS J HIGH_CARD 

pot-win
5555: 200 

seat
button: 7777 10560 2000 
small blind: 8888 1920 0 
big blind: 5555 3780 2000 
6666 7800 2000 
2222 1940 0 

blind
8888: 20 
5555: 40 

hold
SPADES 5 
CLUBS 3 

inquire
7777 10520 2000 40 call 
2222 1900 0 40 call 
6666 7760 2000 40 call 
5555 3740 2000 40 blind 
8888 1900 0 20 blind 
total pot: 180 

7777: 
LOW_SINGLE 0.23408239
BIG_FLUSH 0.057408508
BIG_PAIR 0.015567605
SMALL_FLUSH 0.08622924
HIGH_SINGLE 0.08056617
SMALL_PAIR 0.008772375
2222: 
BIG_PAIR 0.011764706
SMALL_FLUSH 0.19993374
LOW_SINGLE 0.28405342
SMALL_PAIR 0.0064276583
BIG_FLUSH 0.0
6666: 
HIGH_SINGLE 0.111370444
BIG_PAIR 0.020541597
BIG_FLUSH 0.029340958
SMALL_FLUSH 0.15673798
LOW_SINGLE 0.50612634
To server: call 

flop
HEARTS 7 
HEARTS 3 
DIAMONDS 3 

inquire
7777 10520 2000 40 call 
2222 1900 0 40 call 
6666 7760 2000 40 call 
5555 3740 2000 40 check 
8888 1880 0 40 call 
total pot: 200 

7777: 
HIGH_CARD 0.068135455
THREE_OF_A_KIND 0.0
HIGH_TWO_PAIR 0.03302472
STRAIGHT_1 0.0
HIGH_ONE_PAIR 0.09876544
LOW_ONE_PAIR 0.25694102
2222: 
HIGH_ONE_PAIR 0.09069591
HIGH_CARD 0.33961305
STRAIGHT 0.0
HIGH_TWO_PAIR 0.019416567
FLUSH_1 0.048134282
LOW_TWO_PAIR 0.015589843
6666: 
HIGH_TWO_PAIR 0.0
HIGH_CARD 0.21980533
THREE_OF_A_KIND 0.007371795
FLUSH_1 0.0
HIGH_ONE_PAIR 0.22508575
LOW_ONE_PAIR 0.29655156
STRAIGHT_1 0.015973132
5555: 
STRAIGHT_1 0.085128896
LOW_ONE_PAIR 0.16829132
FLUSH_1 0.014835165
LOW_TWO_PAIR 0.0
HIGH_ONE_PAIR 0.25845158
HIGH_TWO_PAIR 0.030895533
THREE_OF_A_KIND 0.0
HIGH_CARD 0.24373132
To server: call 

turn
HEARTS 5 

inquire
7777 10520 2000 40 check 
2222 1900 0 40 check 
6666 7760 2000 40 check 
5555 3740 2000 40 check 
8888 1880 0 40 check 
total pot: 200 

7777: 
LOW_TWO_PAIR 0.0
LOW_ONE_PAIR 0.0
STRAIGHT_1 0.0
HIGH_CARD 0.0
FLUSH 0.0
HIGH_ONE_PAIR 0.0
STRAIGHT 0.0
HIGH_TWO_PAIR 0.0
THREE_OF_A_KIND 0.0
2222: 
STRAIGHT_1 0.08247423
STRAIGHT 0.0
HIGH_CARD 0.054445878
HIGH_TWO_PAIR 0.0
FLUSH_1 0.0
LOW_TWO_PAIR 0.0
FULL_HOUSE_UP 0.0
HIGH_ONE_PAIR 0.104381435
6666: 
HIGH_TWO_PAIR 0.0
STRAIGHT_1 0.0
HIGH_CARD 0.0
HIGH_ONE_PAIR 0.0
LOW_ONE_PAIR 0.0
THREE_OF_A_KIND 0.0
LOW_TWO_PAIR 0.0
FLUSH 0.0
FLUSH_1 0.0
5555: 
THREE_OF_A_KIND 0.0
LOW_TWO_PAIR 0.0
HIGH_TWO_PAIR 0.0
HIGH_CARD 0.0
STRAIGHT_1 0.0
LOW_ONE_PAIR 0.0
FLUSH_1 0.0
HIGH_ONE_PAIR 0.0
To server: raise 1600 

river
HEARTS 9 

inquire
7777 10520 2000 40 fold 
2222 300 0 1640 call 
6666 7760 2000 40 fold 
5555 3740 2000 40 fold 
8888 280 0 1640 raise 
total pot: 3400 

2222: 
THREE_OF_A_KIND 0.59146345
To server: call 

showdown
common/ 
HEARTS 7 
HEARTS 3 
DIAMONDS 3 
HEARTS 5 
HEARTS 9 
/common 
1: 8888 SPADES 5 CLUBS 3 FULL_HOUSE 
2: 2222 DIAMONDS 4 HEARTS 10 FLUSH 

pot-win
8888: 3400 

seat
button: 8888 3680 0 
small blind: 5555 3740 2000 
big blind: 6666 7760 2000 
2222 300 0 
7777 10520 2000 

blind
5555: 20 
6666: 40 

hold
SPADES 7 
DIAMONDS 9 

inquire
7777 10480 2000 40 call 
2222 260 0 40 call 
6666 7720 2000 40 blind 
5555 3720 2000 20 blind 
total pot: 140 

7777: 
BIG_FLUSH 0.057626788
HIGH_SINGLE 0.08087249
BIG_PAIR 0.015626801
SMALL_PAIR 0.008805732
SMALL_FLUSH 0.08655711
LOW_SINGLE 0.2349724
2222: 
BIG_FLUSH 0.0
SMALL_PAIR 9.084658E-4
SMALL_FLUSH 0.02825801
LOW_SINGLE 0.24139239
BIG_PAIR 0.0016627869
HIGH_SINGLE 0.0387114
To server: call 

notify
7777 10480 2000 40 call 
2222 260 0 40 call 
6666 7720 2000 40 check 
5555 3720 2000 20 fold 
8888 3640 0 40 call 
total pot: 180 

flop
SPADES 4 
DIAMONDS 2 
SPADES K 

inquire
7777 10480 2000 40 check 
2222 260 0 40 check 
6666 7720 2000 40 check 
5555 3720 2000 20 fold 
8888 3640 0 40 call 
total pot: 180 

7777: 
HIGH_ONE_PAIR 0.09839132
THREE_OF_A_KIND 0.0
STRAIGHT_1 0.0
LOW_ONE_PAIR 0.25791797
HIGH_CARD 0.06787737
HIGH_TWO_PAIR 0.03315029
2222: 
STRAIGHT_1 0.30772373
LOW_ONE_PAIR 0.52645683
6666: 
FLUSH_1 0.0
HIGH_CARD 0.21867812
LOW_ONE_PAIR 0.2950308
HIGH_TWO_PAIR 0.0
STRAIGHT_1 0.015891219
HIGH_ONE_PAIR 0.22624598
THREE_OF_A_KIND 0.007409793
To server: call 

turn
CLUBS 2 

inquire
7777 10480 2000 40 check 
2222 260 0 40 check 
6666 7720 2000 40 check 
5555 3720 2000 20 fold 
8888 3640 0 40 check 
total pot: 180 

7777: 
STRAIGHT 0.0
THREE_OF_A_KIND 0.0
LOW_TWO_PAIR 0.0
HIGH_ONE_PAIR 0.0
STRAIGHT_1 0.0
HIGH_CARD 0.0
FLUSH 0.0
HIGH_TWO_PAIR 0.0
LOW_ONE_PAIR 0.0
2222: 
LOW_ONE_PAIR 0.5769231
HIGH_CARD 0.1923077
6666: 
HIGH_CARD 0.0
HIGH_TWO_PAIR 0.0
LOW_ONE_PAIR 0.0
THREE_OF_A_KIND 0.0
LOW_TWO_PAIR 0.0
FLUSH 0.0
STRAIGHT_1 0.0
FLUSH_1 0.0
HIGH_ONE_PAIR 0.0
To server: call 

river
CLUBS 6 

inquire
7777 10480 2000 40 check 
2222 260 0 40 check 
6666 7720 2000 40 check 
5555 3720 2000 20 fold 
8888 3640 0 40 check 
total pot: 180 

7777: 
HIGH_TWO_PAIR 0.0
STRAIGHT 0.0
LOW_TWO_PAIR 0.0
LOW_ONE_PAIR 0.0
THREE_OF_A_KIND 0.0
FLUSH 0.0
HIGH_ONE_PAIR 0.0
2222: 
HIGH_TWO_PAIR 0.30598795
HIGH_CARD 0.36585364
6666: 
LOW_ONE_PAIR 0.0
LOW_TWO_PAIR 0.0
FLUSH 0.0
HIGH_TWO_PAIR 0.0
THREE_OF_A_KIND 0.0
STRAIGHT 0.0
HIGH_ONE_PAIR 0.0
To server: call 

showdown
common/ 
SPADES 4 
DIAMONDS 2 
SPADES K 
CLUBS 2 
CLUBS 6 
/common 
1: 6666 HEARTS K HEARTS 7 TWO_PAIR 
3: 2222 CLUBS 3 HEARTS 10 ONE_PAIR 
2: 7777 DIAMONDS 4 CLUBS 5 TWO_PAIR 
4: 8888 SPADES 7 DIAMONDS 9 ONE_PAIR 

pot-win
6666: 180 

seat
button: 5555 3720 2000 
small blind: 6666 7900 2000 
big blind: 2222 260 0 
7777 10480 2000 
8888 3640 0 

blind
6666: 20 
2222: 40 

hold
CLUBS A 
SPADES Q 

inquire
7777 10440 2000 40 call 
2222 220 0 40 blind 
6666 7880 2000 20 blind 
total pot: 100 

7777: 
SMALL_FLUSH 0.08560973
SMALL_PAIR 0.00870935
LOW_SINGLE 0.2414442
BIG_FLUSH 0.05699605
HIGH_SINGLE 0.07998733
BIG_PAIR 0.015455758
To server: call 

notify
7777 10440 2000 40 call 
2222 220 0 40 check 
6666 7860 2000 40 call 
5555 3680 2000 40 call 
8888 3600 0 40 call 
total pot: 200 

flop
SPADES 5 
CLUBS K 
HEARTS 3 

inquire
7777 10440 2000 40 check 
2222 220 0 40 check 
6666 7860 2000 40 check 
5555 3680 2000 40 call 
8888 3600 0 40 call 
total pot: 200 

7777: 
HIGH_ONE_PAIR 0.09655427
HIGH_CARD 0.06661004
HIGH_TWO_PAIR 0.032780144
LOW_ONE_PAIR 0.2825908
STRAIGHT_1 0.0
THREE_OF_A_KIND 0.0
2222: 
STRAIGHT_1 0.35506585
LOW_ONE_PAIR 0.45626256
6666: 
FLUSH_1 0.0
HIGH_TWO_PAIR 0.0
HIGH_CARD 0.2187177
THREE_OF_A_KIND 0.007150788
HIGH_ONE_PAIR 0.24841976
STRAIGHT_1 0.015894093
LOW_ONE_PAIR 0.29508418
5555: 
STRAIGHT_1 0.08650194
HIGH_CARD 0.23986256
LOW_TWO_PAIR 0.0
FLUSH_1 0.0145996865
THREE_OF_A_KIND 0.0
LOW_ONE_PAIR 0.17100568
HIGH_ONE_PAIR 0.25434917
HIGH_TWO_PAIR 0.031393852
To server: call 

turn
SPADES 3 

inquire
7777 10440 2000 40 check 
2222 220 0 40 check 
6666 7860 2000 40 check 
5555 3680 2000 40 check 
8888 3600 0 40 check 
total pot: 200 

7777: 
HIGH_CARD 0.0
HIGH_ONE_PAIR 0.0
LOW_TWO_PAIR 0.0
THREE_OF_A_KIND 0.0
HIGH_TWO_PAIR 0.0
STRAIGHT_1 0.0
STRAIGHT 0.0
LOW_ONE_PAIR 0.0
FLUSH 0.0
2222: 
STRAIGHT_1 0.116071425
HIGH_CARD 0.116071425
LOW_ONE_PAIR 0.3482143
6666: 
FLUSH 0.0
HIGH_TWO_PAIR 0.0
HIGH_ONE_PAIR 0.0
LOW_TWO_PAIR 0.0
FLUSH_1 0.0
THREE_OF_A_KIND 0.0
HIGH_CARD 0.0
LOW_ONE_PAIR 0.0
STRAIGHT_1 0.0
5555: 
STRAIGHT_1 0.0
HIGH_CARD 0.0
LOW_ONE_PAIR 0.0
FLUSH_1 0.0
LOW_TWO_PAIR 0.0
THREE_OF_A_KIND 0.0
HIGH_ONE_PAIR 0.0
HIGH_TWO_PAIR 0.0
To server: call 

river
DIAMONDS 9 

inquire
7777 10440 2000 40 check 
2222 220 0 40 check 
6666 7860 2000 40 check 
5555 3680 2000 40 check 
8888 3600 0 40 check 
total pot: 200 

7777: 
HIGH_ONE_PAIR 0.0
LOW_ONE_PAIR 0.0
HIGH_TWO_PAIR 0.0
LOW_TWO_PAIR 0.0
STRAIGHT 0.0
THREE_OF_A_KIND 0.0
FLUSH 0.0
2222: 
HIGH_TWO_PAIR 0.26518956
HIGH_CARD 0.31707317
6666: 
FLUSH 0.0
STRAIGHT 0.0
LOW_TWO_PAIR 0.0
HIGH_ONE_PAIR 0.0
HIGH_TWO_PAIR 0.0
LOW_ONE_PAIR 0.0
THREE_OF_A_KIND 0.0
5555: 
LOW_ONE_PAIR 0.0
STRAIGHT 0.0
THREE_OF_A_KIND 0.0
FLUSH 0.0
LOW_TWO_PAIR 0.0
HIGH_TWO_PAIR 0.0
HIGH_ONE_PAIR 0.0
To server: call 

showdown
common/ 
SPADES 5 
CLUBS K 
HEARTS 3 
SPADES 3 
DIAMONDS 9 
/common 
3: 6666 DIAMONDS Q CLUBS 7 ONE_PAIR 
4: 2222 SPADES 8 DIAMONDS 7 ONE_PAIR 
1: 7777 SPADES K CLUBS 10 TWO_PAIR 
2: 8888 CLUBS A SPADES Q ONE_PAIR 
3: 5555 CLUBS 2 CLUBS Q ONE_PAIR 

pot-win
7777: 200 

seat
button: 6666 7860 2000 
small blind: 2222 220 0 
big blind: 7777 10640 2000 
8888 3600 0 
5555 3680 2000 

blind
2222: 20 
7777: 40 

hold
CLUBS 5 
HEARTS 5 

inquire
7777 10600 2000 40 blind 
2222 200 0 20 blind 
total pot: 60 

To server: call 

notify
7777 10600 2000 40 check 
2222 180 0 40 call 
6666 7820 2000 40 call 
5555 3640 2000 40 call 
8888 3560 0 40 call 
total pot: 200 

flop
HEARTS 10 
CLUBS K 
SPADES 10 

inquire
7777 10600 2000 40 check 
2222 180 0 40 check 
6666 7820 2000 40 call 
5555 3640 2000 40 call 
8888 3560 0 40 call 
total pot: 200 

7777: 
HIGH_TWO_PAIR 0.0318124
HIGH_ONE_PAIR 0.09658678
HIGH_CARD 0.066632465
LOW_ONE_PAIR 0.27424806
THREE_OF_A_KIND 0.0
STRAIGHT_1 0.0
2222: 
STRAIGHT_1 0.9532359
6666: 
LOW_ONE_PAIR 0.28852817
THREE_OF_A_KIND 0.0070632626
HIGH_CARD 0.21385835
HIGH_ONE_PAIR 0.24537909
STRAIGHT_1 0.015540968
FLUSH_1 0.0
HIGH_TWO_PAIR 0.0
5555: 
HIGH_ONE_PAIR 0.2478019
FLUSH_1 0.01422387
STRAIGHT_1 0.086117305
HIGH_CARD 0.24883969
LOW_TWO_PAIR 0.0
HIGH_TWO_PAIR 0.031254254
THREE_OF_A_KIND 0.0
LOW_ONE_PAIR 0.17024529
To server: call 

turn
HEARTS 7 

inquire
7777 10600 2000 40 check 
2222 180 0 40 check 
6666 7820 2000 40 check 
5555 3640 2000 40 check 
8888 3560 0 40 check 
total pot: 200 

7777: 
STRAIGHT_1 0.0
LOW_ONE_PAIR 0.0
HIGH_TWO_PAIR 0.0
HIGH_CARD 0.0
FLUSH 0.0
STRAIGHT 0.0
HIGH_ONE_PAIR 0.0
THREE_OF_A_KIND 0.0
LOW_TWO_PAIR 0.0
2222: 
HIGH_CARD 0.096491225
LOW_ONE_PAIR 0.28947368
STRAIGHT_1 0.096491225
6666: 
FLUSH_1 0.0
HIGH_TWO_PAIR 0.0
HIGH_CARD 0.0
THREE_OF_A_KIND 0.0
STRAIGHT_1 0.0
LOW_ONE_PAIR 0.0
FLUSH 0.0
HIGH_ONE_PAIR 0.0
LOW_TWO_PAIR 0.0
5555: 
HIGH_TWO_PAIR 0.0
HIGH_CARD 0.0
THREE_OF_A_KIND 0.0
FLUSH_1 0.0
LOW_TWO_PAIR 0.0
LOW_ONE_PAIR 0.0
HIGH_ONE_PAIR 0.0
STRAIGHT_1 0.0
To server: call 

river
CLUBS 7 

inquire
7777 10600 2000 40 check 
2222 180 0 40 check 
6666 7820 2000 40 check 
5555 3640 2000 40 check 
8888 3560 0 40 check 
total pot: 200 

7777: 
FLUSH 0.0
THREE_OF_A_KIND 0.0
LOW_TWO_PAIR 0.0
LOW_ONE_PAIR 0.0
HIGH_ONE_PAIR 0.0
HIGH_TWO_PAIR 0.0
STRAIGHT 0.0
2222: 
HIGH_TWO_PAIR 0.22439116
HIGH_CARD 0.2682927
6666: 
LOW_TWO_PAIR 0.0
HIGH_ONE_PAIR 0.0
HIGH_TWO_PAIR 0.0
THREE_OF_A_KIND 0.0
STRAIGHT 0.0
FLUSH 0.0
LOW_ONE_PAIR 0.0
5555: 
LOW_TWO_PAIR 0.0
STRAIGHT 0.0
FLUSH 0.0
HIGH_ONE_PAIR 0.0
THREE_OF_A_KIND 0.0
HIGH_TWO_PAIR 0.0
LOW_ONE_PAIR 0.0
To server: call 

showdown
common/ 
HEARTS 10 
CLUBS K 
SPADES 10 
HEARTS 7 
CLUBS 7 
/common 
2: 2222 HEARTS 4 SPADES J TWO_PAIR 
2: 7777 DIAMONDS Q SPADES 2 TWO_PAIR 
2: 8888 CLUBS 5 HEARTS 5 TWO_PAIR 
1: 5555 SPADES 4 DIAMONDS A TWO_PAIR 
1: 6666 CLUBS 8 CLUBS A TWO_PAIR 

pot-win
5555: 100 
6666: 100 

seat
button: 2222 180 0 
small blind: 7777 10600 2000 
big blind: 8888 3560 0 
5555 3740 2000 
6666 7920 2000 

blind
7777: 20 
8888: 40 

hold
DIAMONDS 9 
SPADES 6 

inquire
7777 10560 2000 40 call 
2222 140 0 40 call 
6666 7880 2000 40 call 
5555 3700 2000 40 call 
8888 3520 0 40 blind 
total pot: 200 

7777: 
LOW_SINGLE 0.2428016
BIG_FLUSH 0.05474079
SMALL_PAIR 0.008364732
BIG_PAIR 0.014844196
HIGH_SINGLE 0.09031424
SMALL_FLUSH 0.08222226
2222: 
HIGH_SINGLE 0.85718095
6666: 
HIGH_SINGLE 0.10419886
BIG_FLUSH 0.027451579
SMALL_FLUSH 0.1880238
BIG_PAIR 0.019218842
LOW_SINGLE 0.48985603
5555: 
BIG_FLUSH 0.004310001
HIGH_SINGLE 0.055020988
SMALL_FLUSH 0.10179604
LOW_SINGLE 0.43590856
SMALL_PAIR 0.051500797
BIG_PAIR 0.024732988
To server: call 

flop
CLUBS K 
SPADES 10 
SPADES J 

inquire
7777 10560 2000 40 check 
2222 140 0 40 call 
6666 7880 2000 40 call 
5555 3700 2000 40 call 
8888 3520 0 40 check 
total pot: 200 

7777: 
HIGH_CARD 0.06541991
HIGH_ONE_PAIR 0.094829135
LOW_ONE_PAIR 0.27129337
HIGH_TWO_PAIR 0.031469658
STRAIGHT_1 0.0
THREE_OF_A_KIND 0.0
2222: 
STRAIGHT_1 0.77992034
6666: 
HIGH_TWO_PAIR 0.0
HIGH_CARD 0.21183847
LOW_ONE_PAIR 0.28580305
THREE_OF_A_KIND 0.0068909433
HIGH_ONE_PAIR 0.2559499
STRAIGHT_1 0.015394185
FLUSH_1 0.0
5555: 
THREE_OF_A_KIND 0.0
HIGH_ONE_PAIR 0.2634187
LOW_ONE_PAIR 0.16501386
STRAIGHT_1 0.08347104
FLUSH_1 0.014240023
HIGH_TWO_PAIR 0.030293852
LOW_TWO_PAIR 0.0
HIGH_CARD 0.24912228
To server: call 

turn
HEARTS J 

inquire
7777 10560 2000 40 check 
2222 140 0 40 check 
6666 7880 2000 40 check 
5555 3700 2000 40 check 
8888 3520 0 40 check 
total pot: 200 

7777: 
LOW_ONE_PAIR 0.0
STRAIGHT_1 0.0
HIGH_TWO_PAIR 0.0
FLUSH 0.0
THREE_OF_A_KIND 0.0
HIGH_CARD 0.0
HIGH_ONE_PAIR 0.0
LOW_TWO_PAIR 0.0
STRAIGHT 0.0
2222: 
STRAIGHT_1 0.075
LOW_ONE_PAIR 0.225
THREE_OF_A_KIND 0.029284526
HIGH_CARD 0.07500002
6666: 
LOW_ONE_PAIR 0.0
HIGH_TWO_PAIR 0.0
FLUSH_1 0.0
HIGH_ONE_PAIR 0.0
HIGH_CARD 0.0
LOW_TWO_PAIR 0.0
STRAIGHT_1 0.0
FLUSH 0.0
THREE_OF_A_KIND 0.0
5555: 
HIGH_CARD 0.0
HIGH_ONE_PAIR 0.0
LOW_ONE_PAIR 0.0
STRAIGHT_1 0.0
FLUSH_1 0.0
LOW_TWO_PAIR 0.0
HIGH_TWO_PAIR 0.0
THREE_OF_A_KIND 0.0
To server: call 

river
CLUBS 2 

inquire
7777 10560 2000 40 check 
2222 140 0 40 check 
6666 7880 2000 40 check 
5555 3700 2000 40 check 
8888 3520 0 40 check 
total pot: 200 

7777: 
THREE_OF_A_KIND 0.0
FLUSH 0.0
HIGH_ONE_PAIR 0.0
LOW_TWO_PAIR 0.0
HIGH_TWO_PAIR 0.0
STRAIGHT 0.0
LOW_ONE_PAIR 0.0
2222: 
LOW_TWO_PAIR 0.094814815
HIGH_TWO_PAIR 0.15054607
HIGH_CARD 0.18
6666: 
FLUSH 0.0
THREE_OF_A_KIND 0.0
HIGH_ONE_PAIR 0.0
LOW_TWO_PAIR 0.0
LOW_ONE_PAIR 0.0
HIGH_TWO_PAIR 0.0
STRAIGHT 0.0
5555: 
LOW_ONE_PAIR 0.0
LOW_TWO_PAIR 0.0
STRAIGHT 0.0
FLUSH 0.0
THREE_OF_A_KIND 0.0
HIGH_ONE_PAIR 0.0
HIGH_TWO_PAIR 0.0
To server: call 

showdown
common/ 
CLUBS K 
SPADES 10 
SPADES J 
HEARTS J 
CLUBS 2 
/common 
3: 7777 SPADES 5 CLUBS Q ONE_PAIR 
4: 8888 DIAMONDS 9 SPADES 6 ONE_PAIR 
2: 5555 DIAMONDS A DIAMONDS 4 ONE_PAIR 
1: 6666 HEARTS 3 SPADES 2 TWO_PAIR 
2: 2222 SPADES 9 CLUBS A ONE_PAIR 

pot-win
6666: 200 

seat
button: 7777 10560 2000 
small blind: 8888 3520 0 
big blind: 5555 3700 2000 
6666 8080 2000 
2222 140 0 

blind
8888: 20 
5555: 40 

hold
DIAMONDS Q 
SPADES 2 

inquire
7777 10560 2000 0 fold 
2222 100 0 40 call 
6666 8040 2000 40 call 
5555 3660 2000 40 blind 
8888 3500 0 20 blind 
total pot: 140 

2222: 
HIGH_SINGLE 0.9073671
6666: 
LOW_SINGLE 0.48806542
SMALL_FLUSH 0.18127923
BIG_PAIR 0.018529447
BIG_FLUSH 0.026466865
HIGH_SINGLE 0.10046116
To server: call 

flop
CLUBS A 
HEARTS K 
SPADES Q 

inquire
7777 10560 2000 0 fold 
2222 100 0 40 call 
6666 8040 2000 40 call 
5555 3660 2000 40 check 
8888 3480 0 40 call 
total pot: 160 

2222: 
STRAIGHT_1 0.63686585
6666: 
HIGH_ONE_PAIR 0.24670024
FLUSH_1 0.0
THREE_OF_A_KIND 0.0066419146
STRAIGHT_1 0.015443425
LOW_ONE_PAIR 0.27998936
HIGH_TWO_PAIR 0.0
HIGH_CARD 0.22960573
5555: 
FLUSH_1 0.013880551
STRAIGHT_1 0.09779602
LOW_ONE_PAIR 0.16434489
HIGH_CARD 0.2428335
HIGH_TWO_PAIR 0.03017104
HIGH_ONE_PAIR 0.25676903
THREE_OF_A_KIND 0.0
LOW_TWO_PAIR 0.0
To server: call 

turn
DIAMONDS 8 

inquire
7777 10560 2000 0 fold 
2222 100 0 40 check 
6666 8040 2000 40 check 
5555 3660 2000 40 check 
8888 3480 0 40 check 
total pot: 160 

2222: 
THREE_OF_A_KIND 0.7530306
6666: 
HIGH_TWO_PAIR 0.0
STRAIGHT_1 0.0
HIGH_ONE_PAIR 0.0
FLUSH_1 0.0
LOW_TWO_PAIR 0.0
HIGH_CARD 0.0
LOW_ONE_PAIR 0.0
THREE_OF_A_KIND 0.0
FLUSH 0.0
5555: 
THREE_OF_A_KIND 0.0
LOW_ONE_PAIR 0.0
HIGH_CARD 0.0
HIGH_TWO_PAIR 0.0
STRAIGHT_1 0.0
FLUSH_1 0.0
LOW_TWO_PAIR 0.0
HIGH_ONE_PAIR 0.0
To server: call 

river
SPADES K 

inquire
7777 10560 2000 0 fold 
2222 100 0 40 check 
6666 8040 2000 40 check 
5555 3660 2000 40 check 
8888 3480 0 40 check 
total pot: 160 

2222: 
LOW_TWO_PAIR 0.7619048
6666: 
FLUSH 0.0
STRAIGHT 0.0
HIGH_TWO_PAIR 0.0
HIGH_ONE_PAIR 0.0
THREE_OF_A_KIND 0.0
LOW_ONE_PAIR 0.0
LOW_TWO_PAIR 0.0
5555: 
HIGH_TWO_PAIR 0.0
LOW_ONE_PAIR 0.0
HIGH_ONE_PAIR 0.0
LOW_TWO_PAIR 0.0
THREE_OF_A_KIND 0.0
STRAIGHT 0.0
FLUSH 0.0
To server: call 

showdown
common/ 
CLUBS A 
HEARTS K 
SPADES Q 
DIAMONDS 8 
SPADES K 
/common 
2: 8888 DIAMONDS Q SPADES 2 TWO_PAIR 
1: 5555 SPADES A HEARTS 5 TWO_PAIR 
4: 6666 SPADES J SPADES 7 ONE_PAIR 
3: 2222 SPADES 6 HEARTS 8 TWO_PAIR 

pot-win
5555: 160 

seat
button: 8888 3480 0 
small blind: 5555 3820 2000 
big blind: 6666 8040 2000 
2222 100 0 
7777 10560 2000 

blind
5555: 20 
6666: 40 

hold
SPADES K 
SPADES A 

inquire
7777 10520 2000 40 call 
2222 60 0 40 call 
6666 8000 2000 40 blind 
5555 3800 2000 20 blind 
total pot: 140 

7777: 
SMALL_FLUSH 0.08137126
LOW_SINGLE 0.24914768
BIG_FLUSH 0.054174226
HIGH_SINGLE 0.08937948
SMALL_PAIR 0.008278157
BIG_PAIR 0.014690557
2222: 
HIGH_SINGLE 0.64811933
To server: call 

notify
7777 10520 2000 40 call 
2222 60 0 40 call 
6666 8000 2000 40 check 
5555 3780 2000 40 call 
8888 3440 0 40 call 
total pot: 200 

flop
SPADES 6 
HEARTS 6 
DIAMONDS J 

inquire
7777 10520 2000 40 check 
2222 60 0 40 check 
6666 8000 2000 40 check 
5555 3780 2000 40 check 
8888 3440 0 40 call 
total pot: 200 

7777: 
THREE_OF_A_KIND 0.0
HIGH_CARD 0.064242005
HIGH_TWO_PAIR 0.031137593
STRAIGHT_1 0.0
HIGH_ONE_PAIR 0.09312169
LOW_ONE_PAIR 0.26843068
2222: 
THREE_OF_A_KIND 0.79695815
6666: 
STRAIGHT_1 0.031508498
FLUSH_1 0.0
HIGH_ONE_PAIR 0.2438632
THREE_OF_A_KIND 0.0065655326
HIGH_TWO_PAIR 0.0
HIGH_CARD 0.2247237
LOW_ONE_PAIR 0.27676952
5555: 
LOW_TWO_PAIR 0.0
STRAIGHT_1 0.09335108
LOW_ONE_PAIR 0.15687524
HIGH_ONE_PAIR 0.2612547
HIGH_TWO_PAIR 0.028799735
THREE_OF_A_KIND 0.0
HIGH_CARD 0.2470757
FLUSH_1 0.01412304
To server: call 

turn
HEARTS K 

inquire
7777 10520 2000 40 check 
2222 60 0 40 check 
6666 8000 2000 40 check 
5555 3780 2000 40 check 
8888 3440 0 40 check 
total pot: 200 

7777: 
HIGH_ONE_PAIR 0.0
FLUSH 0.0
HIGH_TWO_PAIR 0.0
THREE_OF_A_KIND 0.0
STRAIGHT_1 0.0
HIGH_CARD 0.0
LOW_TWO_PAIR 0.0
STRAIGHT 0.0
LOW_ONE_PAIR 0.0
2222: 
THREE_OF_A_KIND 0.948548
6666: 
HIGH_ONE_PAIR 0.0
LOW_TWO_PAIR 0.0
FLUSH_1 0.0
FLUSH 0.0
HIGH_TWO_PAIR 0.0
LOW_ONE_PAIR 0.0
STRAIGHT_1 0.0
THREE_OF_A_KIND 0.0
HIGH_CARD 0.0
5555: 
HIGH_CARD 0.0
STRAIGHT_1 0.0
THREE_OF_A_KIND 0.0
LOW_ONE_PAIR 0.0
HIGH_TWO_PAIR 0.0
LOW_TWO_PAIR 0.0
HIGH_ONE_PAIR 0.0
FLUSH_1 0.0
To server: call 

river
HEARTS 10 

inquire
7777 10520 2000 40 check 
2222 60 0 40 check 
6666 8000 2000 40 check 
5555 3780 2000 40 check 
8888 3440 0 40 check 
total pot: 200 

7777: 
HIGH_TWO_PAIR 0.0
THREE_OF_A_KIND 0.0
STRAIGHT 0.0
FLUSH 0.0
LOW_ONE_PAIR 0.0
HIGH_ONE_PAIR 0.0
LOW_TWO_PAIR 0.0
2222: 
FULL_HOUSE_UP 0.3002801
LOW_TWO_PAIR 0.625
6666: 
THREE_OF_A_KIND 0.0
HIGH_ONE_PAIR 0.0
FLUSH 0.0
LOW_ONE_PAIR 0.0
HIGH_TWO_PAIR 0.0
STRAIGHT 0.0
LOW_TWO_PAIR 0.0
5555: 
STRAIGHT 0.0
LOW_TWO_PAIR 0.0
HIGH_ONE_PAIR 0.0
THREE_OF_A_KIND 0.0
FLUSH 0.0
LOW_ONE_PAIR 0.0
HIGH_TWO_PAIR 0.0
To server: call 

showdown
common/ 
SPADES 6 
HEARTS 6 
DIAMONDS J 
HEARTS K 
HEARTS 10 
/common 
3: 5555 HEARTS Q SPADES 7 ONE_PAIR 
4: 6666 DIAMONDS 7 DIAMONDS 9 ONE_PAIR 
2: 2222 DIAMONDS 10 CLUBS 5 TWO_PAIR 
3: 7777 HEARTS 4 CLUBS Q ONE_PAIR 
1: 8888 SPADES K SPADES A TWO_PAIR 

pot-win
8888: 200 

seat
button: 5555 3780 2000 
small blind: 6666 8000 2000 
big blind: 2222 60 0 
7777 10520 2000 
8888 3640 0 

blind
6666: 20 
2222: 40 

hold
DIAMONDS J 
HEARTS K 

inquire
7777 10480 2000 40 call 
2222 20 0 40 blind 
6666 7980 2000 20 blind 
total pot: 100 

7777: 
LOW_SINGLE 0.25547248
HIGH_SINGLE 0.08847323
SMALL_FLUSH 0.0805462
SMALL_PAIR 0.008194223
BIG_PAIR 0.014541606
BIG_FLUSH 0.053624928
To server: call 

notify
7777 10480 2000 40 call 
2222 20 0 40 check 
6666 7960 2000 40 call 
5555 3740 2000 40 call 
8888 3600 0 40 call 
total pot: 200 

flop
SPADES Q 
DIAMONDS 5 
HEARTS A 

inquire
7777 10480 2000 40 check 
2222 20 0 40 check 
6666 7960 2000 40 check 
5555 3740 2000 40 call 
8888 3600 0 40 call 
total pot: 200 

7777: 
HIGH_ONE_PAIR 0.09146237
HIGH_TWO_PAIR 0.030815763
HIGH_CARD 0.06309727
THREE_OF_A_KIND 0.0
LOW_ONE_PAIR 0.292886
STRAIGHT_1 0.0
2222: 
THREE_OF_A_KIND 0.7528626
6666: 
HIGH_CARD 0.21999913
HIGH_TWO_PAIR 0.0
HIGH_ONE_PAIR 0.24112958
FLUSH_1 0.0
STRAIGHT_1 0.030846065
LOW_ONE_PAIR 0.2747211
THREE_OF_A_KIND 0.006491935
5555: 
THREE_OF_A_KIND 0.0
LOW_ONE_PAIR 0.18123679
LOW_TWO_PAIR 0.0
HIGH_CARD 0.24099584
FLUSH_1 0.013775511
HIGH_TWO_PAIR 0.02868871
HIGH_ONE_PAIR 0.25482592
STRAIGHT_1 0.092991225
To server: call 

turn
HEARTS 3 

inquire
7777 10480 2000 40 check 
2222 20 0 40 check 
6666 7960 2000 40 check 
5555 3740 2000 40 check 
8888 3600 0 40 check 
total pot: 200 

7777: 
THREE_OF_A_KIND 0.0
FLUSH 0.0
STRAIGHT_1 0.0
HIGH_CARD 0.0
LOW_TWO_PAIR 0.0
HIGH_TWO_PAIR 0.0
HIGH_ONE_PAIR 0.0
LOW_ONE_PAIR 0.0
STRAIGHT 0.0
2222: 
THREE_OF_A_KIND 0.56912875
6666: 
HIGH_CARD 0.0
LOW_ONE_PAIR 0.0
THREE_OF_A_KIND 0.0
LOW_TWO_PAIR 0.0
HIGH_TWO_PAIR 0.0
STRAIGHT_1 0.0
FLUSH 0.0
FLUSH_1 0.0
HIGH_ONE_PAIR 0.0
5555: 
FLUSH_1 0.0
STRAIGHT_1 0.0
THREE_OF_A_KIND 0.0
LOW_TWO_PAIR 0.0
LOW_ONE_PAIR 0.0
HIGH_TWO_PAIR 0.0
HIGH_ONE_PAIR 0.0
HIGH_CARD 0.0
To server: call 

river
CLUBS 6 

inquire
7777 10480 2000 40 check 
2222 20 0 40 check 
6666 7960 2000 40 fold 
5555 3740 2000 40 check 
8888 3600 0 40 check 
total pot: 200 

7777: 
HIGH_TWO_PAIR 0.0
STRAIGHT 0.0
FLUSH 0.0
LOW_ONE_PAIR 0.0
THREE_OF_A_KIND 0.0
HIGH_ONE_PAIR 0.0
LOW_TWO_PAIR 0.0
2222: 
FLUSH 0.25203252
THREE_OF_A_KIND 0.5
5555: 
LOW_ONE_PAIR 0.0
STRAIGHT 0.0
LOW_TWO_PAIR 0.0
HIGH_ONE_PAIR 0.0
HIGH_TWO_PAIR 0.0
THREE_OF_A_KIND 0.0
FLUSH 0.0
To server: fold 

showdown
common/ 
SPADES Q 
DIAMONDS 5 
HEARTS A 
HEARTS 3 
CLUBS 6 
/common 
2: 2222 CLUBS 8 SPADES 6 ONE_PAIR 
3: 7777 CLUBS 3 CLUBS 2 ONE_PAIR 
1: 5555 SPADES A CLUBS 10 ONE_PAIR 

pot-win
5555: 200 

seat
button: 6666 7960 2000 
small blind: 7777 10480 2000 
big blind: 8888 3600 0 
5555 3940 2000 

blind
7777: 20 
8888: 40 

hold
CLUBS 6 
SPADES 9 

inquire
7777 10440 2000 40 call 
6666 7920 2000 40 call 
5555 3900 2000 40 call 
8888 3560 0 40 blind 
total pot: 160 

7777: 
SMALL_FLUSH 0.092542864
BIG_PAIR 0.014397144
HIGH_SINGLE 0.08759432
LOW_SINGLE 0.25293458
SMALL_PAIR 0.008112819
BIG_FLUSH 0.05309221
6666: 
LOW_SINGLE 0.47969547
HIGH_SINGLE 0.09873833
BIG_PAIR 0.018211683
BIG_FLUSH 0.026012983
SMALL_FLUSH 0.22028428
5555: 
BIG_FLUSH 0.0038607281
LOW_SINGLE 0.415141
SMALL_FLUSH 0.102727145
HIGH_SINGLE 0.0599133
BIG_PAIR 0.02215483
SMALL_PAIR 0.04613237
To server: call 

flop
HEARTS 5 
SPADES 6 
HEARTS 4 

inquire
7777 10320 2000 160 raise 
6666 7920 2000 40 call 
5555 3900 2000 40 call 
8888 3560 0 40 check 
total pot: 280 

7777: 
HIGH_CARD 0.015496088
HIGH_TWO_PAIR 0.014228668
HIGH_ONE_PAIR 0.02246226
LOW_ONE_PAIR 0.07335584
STRAIGHT_1 0.0
THREE_OF_A_KIND 0.0
6666: 
LOW_ONE_PAIR 0.27334747
HIGH_TWO_PAIR 0.0
FLUSH_1 0.0
THREE_OF_A_KIND 0.006524558
HIGH_ONE_PAIR 0.2423413
STRAIGHT_1 0.030691836
HIGH_CARD 0.21889913
5555: 
THREE_OF_A_KIND 0.0
HIGH_ONE_PAIR 0.27670887
LOW_ONE_PAIR 0.17142794
STRAIGHT_1 0.08795837
HIGH_TWO_PAIR 0.02713603
LOW_TWO_PAIR 0.0
FLUSH_1 0.014156367
HIGH_CARD 0.24765874
To server: call 

turn
HEARTS 3 

inquire
7777 10320 2000 160 check 
6666 7800 2000 160 call 
5555 3780 2000 160 call 
8888 3440 0 160 call 
total pot: 640 

7777: 
HIGH_CARD 0.0
HIGH_TWO_PAIR 0.0
THREE_OF_A_KIND 0.0
STRAIGHT 0.0
FLUSH 0.0
STRAIGHT_1 0.0
HIGH_ONE_PAIR 0.0
LOW_ONE_PAIR 0.0
LOW_TWO_PAIR 0.0
6666: 
LOW_ONE_PAIR 0.0
STRAIGHT_1 0.0
HIGH_CARD 0.0
FLUSH_1 0.0
HIGH_ONE_PAIR 0.0
FLUSH 0.0
THREE_OF_A_KIND 0.0
LOW_TWO_PAIR 0.0
HIGH_TWO_PAIR 0.0
5555: 
STRAIGHT_1 0.0
THREE_OF_A_KIND 0.0
LOW_TWO_PAIR 0.0
LOW_ONE_PAIR 0.0
FLUSH_1 0.0
HIGH_TWO_PAIR 0.0
HIGH_ONE_PAIR 0.0
HIGH_CARD 0.0
To server: call 

inquire
7777 9520 2000 960 call 
6666 7000 2000 960 call 
5555 2980 2000 960 raise 
8888 3440 0 160 check 
total pot: 3040 

7777: 
STRAIGHT 0.0
LOW_ONE_PAIR 0.0
HIGH_ONE_PAIR 0.0
STRAIGHT_1 0.0
THREE_OF_A_KIND 0.0
LOW_TWO_PAIR 0.0
HIGH_CARD 0.0
HIGH_TWO_PAIR 0.0
FLUSH 0.0
6666: 
THREE_OF_A_KIND 0.0
LOW_ONE_PAIR 0.0
STRAIGHT_1 0.0
HIGH_TWO_PAIR 0.0
HIGH_ONE_PAIR 0.0
FLUSH_1 0.0
HIGH_CARD 0.0
FLUSH 0.0
LOW_TWO_PAIR 0.0
5555: 
HIGH_CARD 0.0
LOW_ONE_PAIR 0.0
HIGH_TWO_PAIR 0.0
HIGH_ONE_PAIR 0.0
FLUSH_1 0.0
THREE_OF_A_KIND 0.0
STRAIGHT_1 0.0
LOW_TWO_PAIR 0.0
To server: call 

river
SPADES 5 

inquire
7777 9520 2000 960 check 
6666 7000 2000 960 call 
5555 2980 2000 960 raise 
8888 2640 0 960 call 
total pot: 3840 

7777: 
HIGH_ONE_PAIR 0.0
THREE_OF_A_KIND 0.0
LOW_ONE_PAIR 0.0
HIGH_TWO_PAIR 0.0
FLUSH 0.0
LOW_TWO_PAIR 0.0
STRAIGHT 0.0
6666: 
FLUSH 0.0
LOW_TWO_PAIR 0.0
THREE_OF_A_KIND 0.0
STRAIGHT 0.0
HIGH_TWO_PAIR 0.0
HIGH_ONE_PAIR 0.0
LOW_ONE_PAIR 0.0
5555: 
HIGH_ONE_PAIR 0.0
THREE_OF_A_KIND 0.0
LOW_TWO_PAIR 0.0
STRAIGHT 0.0
HIGH_TWO_PAIR 0.0
LOW_ONE_PAIR 0.0
FLUSH 0.0
To server: call 

inquire
7777 8320 2000 2160 call 
6666 5800 2000 2160 call 
5555 1780 2000 2160 raise 
8888 2640 0 960 check 
total pot: 7440 

7777: 
HIGH_TWO_PAIR 0.0
FLUSH 0.0
LOW_ONE_PAIR 0.0
HIGH_ONE_PAIR 0.0
THREE_OF_A_KIND 0.0
LOW_TWO_PAIR 0.0
STRAIGHT 0.0
6666: 
THREE_OF_A_KIND 0.0
FLUSH 0.0
HIGH_TWO_PAIR 0.0
LOW_TWO_PAIR 0.0
HIGH_ONE_PAIR 0.0
STRAIGHT 0.0
LOW_ONE_PAIR 0.0
5555: 
FULL_HOUSE_UP 0.5482234
To server: call 

showdown
common/ 
HEARTS 5 
SPADES 6 
HEARTS 4 
HEARTS 3 
SPADES 5 
/common 
3: 7777 CLUBS J SPADES J TWO_PAIR 
4: 8888 CLUBS 6 SPADES 9 TWO_PAIR 
1: 5555 HEARTS 6 HEARTS 8 FLUSH 
2: 6666 CLUBS Q DIAMONDS 7 STRAIGHT 

pot-win
5555: 8640 

seat
button: 7777 8320 2000 
small blind: 8888 1440 0 
big blind: 5555 10420 2000 
6666 5800 2000 

blind
8888: 20 
5555: 40 

hold
HEARTS 2 
DIAMONDS A 

inquire
7777 8280 2000 40 call 
6666 5760 2000 40 call 
5555 10380 2000 40 blind 
8888 1420 0 20 blind 
total pot: 140 

7777: 
SMALL_FLUSH 0.11499316
LOW_SINGLE 0.3142949
BIG_PAIR 0.026229853
HIGH_SINGLE 0.107377045
SMALL_PAIR 0.010080938
BIG_FLUSH 0.044289075
6666: 
BIG_FLUSH 0.035142757
SMALL_FLUSH 0.21001527
BIG_PAIR 0.024603434
LOW_SINGLE 0.4728778
HIGH_SINGLE 0.08968188
To server: call 

flop
SPADES 7 
DIAMONDS Q 
HEARTS Q 

inquire
7777 8280 2000 40 call 
6666 5760 2000 40 call 
5555 10380 2000 40 check 
8888 1400 0 40 call 
total pot: 160 

7777: 
STRAIGHT_1 0.0
LOW_ONE_PAIR 0.22975574
HIGH_CARD 0.04853484
THREE_OF_A_KIND 0.0
HIGH_ONE_PAIR 0.114021115
HIGH_TWO_PAIR 0.037896648
6666: 
THREE_OF_A_KIND 0.008812261
HIGH_ONE_PAIR 0.22246061
HIGH_TWO_PAIR 0.0
LOW_ONE_PAIR 0.1960113
HIGH_CARD 0.15696761
STRAIGHT_1 0.0336326
FLUSH_1 0.0
5555: 
STRAIGHT_1 0.032796808
THREE_OF_A_KIND 0.0
LOW_ONE_PAIR 0.06904577
HIGH_TWO_PAIR 0.01011814
HIGH_ONE_PAIR 0.11788353
LOW_TWO_PAIR 0.0
FLUSH_1 0.020899978
HIGH_CARD 0.10781798
To server: call 

turn
HEARTS 10 

inquire
7777 8280 2000 40 check 
6666 5760 2000 40 check 
5555 10380 2000 40 check 
8888 1400 0 40 check 
total pot: 160 

7777: 
LOW_TWO_PAIR 0.0
STRAIGHT 0.0
HIGH_CARD 0.0
HIGH_TWO_PAIR 0.0
LOW_ONE_PAIR 0.0
STRAIGHT_1 0.0
HIGH_ONE_PAIR 0.23167068
THREE_OF_A_KIND 0.0
FLUSH 0.0
6666: 
THREE_OF_A_KIND 0.0
LOW_TWO_PAIR 0.0
HIGH_ONE_PAIR 0.0
STRAIGHT_1 0.0
LOW_ONE_PAIR 0.0
HIGH_TWO_PAIR 0.0
FLUSH 0.0
FLUSH_1 0.0
HIGH_CARD 0.0
5555: 
FLUSH_1 0.0
THREE_OF_A_KIND 0.0
HIGH_TWO_PAIR 0.0
LOW_ONE_PAIR 0.0
HIGH_ONE_PAIR 0.0
HIGH_CARD 0.0
LOW_TWO_PAIR 0.0
STRAIGHT_1 0.0
To server: call 

river
DIAMONDS 4 

inquire
7777 8280 2000 40 check 
6666 5760 2000 40 check 
5555 10380 2000 40 check 
8888 1400 0 40 check 
total pot: 160 

7777: 
HIGH_TWO_PAIR 0.03637769
LOW_TWO_PAIR 0.0
THREE_OF_A_KIND 0.0
FLUSH 0.0
HIGH_ONE_PAIR 0.0
STRAIGHT 0.0
LOW_ONE_PAIR 0.0
6666: 
HIGH_TWO_PAIR 0.0
THREE_OF_A_KIND 0.0
HIGH_ONE_PAIR 0.0
LOW_TWO_PAIR 0.0
FLUSH 0.0
LOW_ONE_PAIR 0.0
5555: 
THREE_OF_A_KIND 0.0
STRAIGHT 0.0
LOW_TWO_PAIR 0.0
HIGH_ONE_PAIR 0.0
LOW_ONE_PAIR 0.0
HIGH_TWO_PAIR 0.0
To server: call 

inquire
7777 8080 2000 240 call 
6666 5560 2000 240 call 
5555 10180 2000 240 raise 
8888 1400 0 40 check 
total pot: 760 

7777: 
HIGH_TWO_PAIR 0.116439626
STRAIGHT 0.0
THREE_OF_A_KIND 0.0
HIGH_ONE_PAIR 0.0
LOW_TWO_PAIR 0.0
LOW_ONE_PAIR 0.0
FLUSH 0.0
6666: 
FLUSH 0.0
LOW_TWO_PAIR 0.0
THREE_OF_A_KIND 0.0
STRAIGHT 0.03366782
HIGH_TWO_PAIR 0.0
LOW_ONE_PAIR 0.0
HIGH_ONE_PAIR 0.0
5555: 
STRAIGHT 0.0
LOW_ONE_PAIR 0.0
THREE_OF_A_KIND 0.0
HIGH_ONE_PAIR 0.0
LOW_TWO_PAIR 0.0
HIGH_TWO_PAIR 0.0
To server: call 

showdown
common/ 
SPADES 7 
DIAMONDS Q 
HEARTS Q 
HEARTS 10 
DIAMONDS 4 
/common 
3: 8888 HEARTS 2 DIAMONDS A ONE_PAIR 
2: 5555 CLUBS J HEARTS 4 TWO_PAIR 
1: 6666 HEARTS K CLUBS 4 TWO_PAIR 
4: 7777 SPADES 9 SPADES 8 ONE_PAIR 

pot-win
6666: 960 

seat
button: 8888 1200 0 
small blind: 5555 10180 2000 
big blind: 6666 6520 2000 
7777 8080 2000 

blind
5555: 20 
6666: 40 

hold
CLUBS A 
HEARTS 3 

inquire
7777 8040 2000 40 call 
6666 6480 2000 40 blind 
5555 10160 2000 20 blind 
total pot: 100 

7777: 
HIGH_SINGLE 0.10288925
LOW_SINGLE 0.3193153
BIG_FLUSH 0.04243802
SMALL_PAIR 0.010241965
BIG_PAIR 0.02664884
SMALL_FLUSH 0.13052249
To server: call 

notify
7777 8040 2000 40 call 
6666 6480 2000 40 check 
5555 10160 2000 20 fold 
8888 1160 0 40 call 
total pot: 140 

flop
HEARTS K 
DIAMONDS 8 
CLUBS 4 

inquire
7777 8040 2000 40 check 
6666 6480 2000 40 check 
5555 10160 2000 20 fold 
8888 1160 0 40 call 
total pot: 140 

7777: 
HIGH_TWO_PAIR 0.03849496
THREE_OF_A_KIND 0.0
HIGH_ONE_PAIR 0.12242276
LOW_ONE_PAIR 0.22011293
HIGH_CARD 0.046497837
STRAIGHT_1 0.0
6666: 
LOW_ONE_PAIR 0.21690087
STRAIGHT_1 0.03721694
HIGH_CARD 0.17369618
FLUSH_1 0.0
THREE_OF_A_KIND 0.007716641
HIGH_ONE_PAIR 0.2638556
HIGH_TWO_PAIR 0.0
To server: call 

turn
SPADES 7 

inquire
7777 8040 2000 40 check 
6666 6480 2000 40 check 
5555 10160 2000 20 fold 
8888 1160 0 40 check 
total pot: 140 

7777: 
LOW_ONE_PAIR 0.0
LOW_TWO_PAIR 0.0
HIGH_CARD 0.0
THREE_OF_A_KIND 0.0
STRAIGHT_1 0.0
STRAIGHT 0.0
FLUSH 0.0
HIGH_TWO_PAIR 0.0
HIGH_ONE_PAIR 0.2584084
6666: 
LOW_ONE_PAIR 0.0
HIGH_CARD 0.0
LOW_TWO_PAIR 0.0
HIGH_ONE_PAIR 0.0
HIGH_TWO_PAIR 0.0
FLUSH_1 0.0
THREE_OF_A_KIND 0.0
STRAIGHT_1 0.0
FLUSH 0.0
To server: call 

river
DIAMONDS 10 

inquire
7777 8040 2000 40 check 
6666 6480 2000 40 check 
5555 10160 2000 20 fold 
8888 1160 0 40 check 
total pot: 140 

7777: 
LOW_ONE_PAIR 0.0
STRAIGHT 0.0
LOW_TWO_PAIR 0.0
FLUSH 0.0
HIGH_TWO_PAIR 0.036923103
HIGH_ONE_PAIR 0.08404994
THREE_OF_A_KIND 0.0
6666: 
LOW_TWO_PAIR 0.0
FLUSH 0.0
HIGH_ONE_PAIR 0.0
THREE_OF_A_KIND 0.0
LOW_ONE_PAIR 0.0
HIGH_TWO_PAIR 0.113986015
To server: fold 

showdown
common/ 
HEARTS K 
DIAMONDS 8 
CLUBS 4 
SPADES 7 
DIAMONDS 10 
/common 
2: 6666 DIAMONDS 4 CLUBS J ONE_PAIR 
1: 7777 DIAMONDS A SPADES 8 ONE_PAIR 

pot-win
7777: 140 

seat
button: 5555 10160 2000 
small blind: 6666 6480 2000 
big blind: 7777 8180 2000 
8888 1160 0 

blind
6666: 20 
7777: 40 

hold
SPADES 9 
SPADES 7 

inquire
7777 8140 2000 40 blind 
6666 6460 2000 20 blind 
total pot: 60 

To server: call 

notify
7777 8140 2000 40 check 
6666 6440 2000 40 call 
5555 10120 2000 40 call 
8888 1120 0 40 call 
total pot: 160 

flop
DIAMONDS K 
CLUBS J 
DIAMONDS 10 

inquire
7777 8140 2000 40 check 
6666 6440 2000 40 check 
5555 10120 2000 40 call 
8888 1120 0 40 call 
total pot: 160 

7777: 
THREE_OF_A_KIND 0.0
HIGH_CARD 0.046445668
HIGH_TWO_PAIR 0.037517373
HIGH_ONE_PAIR 0.12228539
LOW_ONE_PAIR 0.21986593
STRAIGHT_1 0.0
6666: 
HIGH_ONE_PAIR 0.25820246
HIGH_CARD 0.16997471
HIGH_TWO_PAIR 0.0
STRAIGHT_1 0.03641955
LOW_ONE_PAIR 0.21225373
FLUSH_1 0.0
THREE_OF_A_KIND 0.0076448238
5555: 
HIGH_ONE_PAIR 0.13087106
THREE_OF_A_KIND 0.0
HIGH_CARD 0.10906236
FLUSH_1 0.021141192
STRAIGHT_1 0.033175327
LOW_TWO_PAIR 0.0
HIGH_TWO_PAIR 0.0102349175
LOW_ONE_PAIR 0.06984267
To server: call 

turn
SPADES A 

inquire
7777 8140 2000 40 check 
6666 6440 2000 40 check 
5555 10120 2000 40 check 
8888 1120 0 40 check 
total pot: 160 

7777: 
FLUSH 0.0
THREE_OF_A_KIND 0.0
HIGH_CARD 0.0
HIGH_ONE_PAIR 0.25544894
LOW_TWO_PAIR 0.0
STRAIGHT 0.0
HIGH_TWO_PAIR 0.0
STRAIGHT_1 0.0
LOW_ONE_PAIR 0.0
6666: 
THREE_OF_A_KIND 0.0
FLUSH_1 0.0
LOW_ONE_PAIR 0.0
LOW_TWO_PAIR 0.0
HIGH_ONE_PAIR 0.0
STRAIGHT_1 0.0
HIGH_TWO_PAIR 0.0
HIGH_CARD 0.0
FLUSH 0.0
5555: 
HIGH_CARD 0.0
FLUSH_1 0.0
THREE_OF_A_KIND 0.0
HIGH_ONE_PAIR 0.0
STRAIGHT_1 0.0
LOW_TWO_PAIR 0.0
LOW_ONE_PAIR 0.0
HIGH_TWO_PAIR 0.0
To server: call 

river
SPADES 6 

inquire
7777 8140 2000 40 fold 
6666 6440 2000 40 fold 
5555 10120 2000 40 check 
8888 1120 0 40 check 
total pot: 160 

5555: 
STRAIGHT 0.0
LOW_ONE_PAIR 0.0
HIGH_ONE_PAIR 0.0
THREE_OF_A_KIND 0.0
HIGH_TWO_PAIR 0.08511351
LOW_TWO_PAIR 0.0
To server: fold 

notify
7777 8140 2000 40 fold 
6666 6440 2000 40 fold 
5555 10120 2000 40 fold 
8888 1120 0 40 fold 
total pot: 160 

pot-win

seat
button: 6666 6440 2000 
small blind: 7777 8140 2000 
big blind: 8888 1120 0 
5555 10120 2000 

blind
7777: 20 
8888: 40 

hold
HEARTS 2 
HEARTS J 

inquire
7777 8100 2000 40 call 
6666 6400 2000 40 call 
5555 10080 2000 40 call 
8888 1080 0 40 blind 
total pot: 160 

7777: 
SMALL_FLUSH 0.12785566
SMALL_PAIR 0.010032704
HIGH_SINGLE 0.102289416
BIG_FLUSH 0.042190615
LOW_SINGLE 0.32288417
BIG_PAIR 0.026104353
6666: 
BIG_FLUSH 0.030691205
BIG_PAIR 0.021486906
SMALL_FLUSH 0.22612302
LOW_SINGLE 0.52597004
HIGH_SINGLE 0.0965603
5555: 
SMALL_PAIR 0.017468557
SMALL_FLUSH 0.043451272
HIGH_SINGLE 0.02268686
BIG_PAIR 0.008389183
BIG_FLUSH 0.0014619093
LOW_SINGLE 0.16360834
To server: call 

flop
CLUBS K 
DIAMONDS J 
HEARTS 5 

inquire
7777 8100 2000 40 check 
6666 6400 2000 40 call 
5555 10080 2000 40 call 
8888 1080 0 40 check 
total pot: 160 

7777: 
HIGH_TWO_PAIR 0.037701733
THREE_OF_A_KIND 0.0
HIGH_ONE_PAIR 0.12168742
HIGH_CARD 0.046218544
STRAIGHT_1 0.0
LOW_ONE_PAIR 0.21879078
6666: 
HIGH_CARD 0.16892546
HIGH_ONE_PAIR 0.25660858
STRAIGHT_1 0.03619474
HIGH_TWO_PAIR 0.0
FLUSH_1 0.0
LOW_ONE_PAIR 0.21094352
THREE_OF_A_KIND 0.0076923077
5555: 
FLUSH_1 0.021224758
LOW_TWO_PAIR 0.0
HIGH_TWO_PAIR 0.010275374
THREE_OF_A_KIND 0.0
LOW_ONE_PAIR 0.07011872
STRAIGHT_1 0.03330646
HIGH_CARD 0.109493434
HIGH_ONE_PAIR 0.13138832
To server: call 

turn
HEARTS 10 

inquire
7777 8100 2000 40 check 
6666 6400 2000 40 check 
5555 10080 2000 40 check 
8888 1080 0 40 check 
total pot: 160 

7777: 
STRAIGHT 0.0
HIGH_TWO_PAIR 0.0
THREE_OF_A_KIND 0.0
LOW_ONE_PAIR 0.0
HIGH_ONE_PAIR 0.25670418
STRAIGHT_1 0.0
LOW_TWO_PAIR 0.0
FLUSH 0.0
HIGH_CARD 0.0
6666: 
LOW_TWO_PAIR 0.0
FLUSH 0.0
LOW_ONE_PAIR 0.0
STRAIGHT_1 0.0
HIGH_ONE_PAIR 0.0
THREE_OF_A_KIND 0.0
HIGH_TWO_PAIR 0.0
FLUSH_1 0.0
HIGH_CARD 0.0
5555: 
HIGH_CARD 0.0
FLUSH_1 0.0
HIGH_TWO_PAIR 0.0
STRAIGHT_1 0.0
THREE_OF_A_KIND 0.0
HIGH_ONE_PAIR 0.0
LOW_ONE_PAIR 0.0
LOW_TWO_PAIR 0.0
To server: call 

river
DIAMONDS 6 

inquire
7777 8100 2000 40 check 
6666 6400 2000 40 check 
5555 10080 2000 40 check 
8888 1080 0 40 check 
total pot: 160 

7777: 
STRAIGHT 0.0
FLUSH 0.0
LOW_TWO_PAIR 0.0
THREE_OF_A_KIND 0.0
HIGH_TWO_PAIR 0.036134724
LOW_ONE_PAIR 0.0
HIGH_ONE_PAIR 0.08348148
6666: 
FLUSH 0.0
LOW_ONE_PAIR 0.0
THREE_OF_A_KIND 0.0
HIGH_TWO_PAIR 0.11074171
HIGH_ONE_PAIR 0.0
LOW_TWO_PAIR 0.0
5555: 
LOW_ONE_PAIR 0.0
STRAIGHT 0.0
THREE_OF_A_KIND 0.0
LOW_TWO_PAIR 0.0
HIGH_ONE_PAIR 0.0
HIGH_TWO_PAIR 0.08477843
To server: call 

showdown
common/ 
CLUBS K 
DIAMONDS J 
HEARTS 5 
HEARTS 10 
DIAMONDS 6 
/common 
1: 7777 SPADES J HEARTS 8 ONE_PAIR 
2: 8888 HEARTS 2 HEARTS J ONE_PAIR 

pot-win
7777: 160 

seat
button: 7777 8260 2000 
small blind: 8888 1080 0 
big blind: 5555 10080 2000 
6666 6400 2000 

blind
8888: 20 
5555: 40 

hold
CLUBS 8 
DIAMONDS Q 

inquire
7777 8220 2000 40 call 
6666 6360 2000 40 call 
5555 10040 2000 40 blind 
8888 1060 0 20 blind 
total pot: 140 

7777: 
BIG_PAIR 0.025391022
SMALL_PAIR 0.009758548
BIG_FLUSH 0.04225658
SMALL_FLUSH 0.12436186
HIGH_SINGLE 0.10244934
LOW_SINGLE 0.32396856
6666: 
BIG_PAIR 0.021621197
SMALL_FLUSH 0.22471853
LOW_SINGLE 0.5227031
BIG_FLUSH 0.030883024
HIGH_SINGLE 0.09596054
To server: call 

flop
CLUBS 3 
SPADES 3 
SPADES 8 

inquire
7777 8220 2000 40 call 
6666 6360 2000 40 call 
5555 10040 2000 40 check 
8888 1040 0 40 call 
total pot: 160 

7777: 
THREE_OF_A_KIND 0.0
LOW_ONE_PAIR 0.21909493
HIGH_TWO_PAIR 0.03666514
HIGH_ONE_PAIR 0.12185658
HIGH_CARD 0.046282798
STRAIGHT_1 0.0
6666: 
HIGH_CARD 0.16787624
FLUSH_1 0.0
HIGH_ONE_PAIR 0.25501478
THREE_OF_A_KIND 0.007740385
LOW_ONE_PAIR 0.2096333
HIGH_TWO_PAIR 0.0
STRAIGHT_1 0.03596993
5555: 
FLUSH_1 0.021308983
STRAIGHT_1 0.033438623
HIGH_CARD 0.10992794
HIGH_TWO_PAIR 0.010316147
HIGH_ONE_PAIR 0.13190971
THREE_OF_A_KIND 0.0
LOW_ONE_PAIR 0.07039698
LOW_TWO_PAIR 0.0
To server: raise 200 

turn
SPADES J 

inquire
7777 8020 2000 240 call 
6666 6160 2000 240 call 
5555 9840 2000 240 call 
8888 840 0 240 raise 
total pot: 960 

7777: 
LOW_TWO_PAIR 0.0
LOW_ONE_PAIR 0.0
THREE_OF_A_KIND 0.0
STRAIGHT 0.0
FLUSH 0.0
STRAIGHT_1 0.0
HIGH_CARD 0.0
HIGH_ONE_PAIR 0.042853434
HIGH_TWO_PAIR 0.0
6666: 
HIGH_CARD 0.0
HIGH_TWO_PAIR 0.0
FLUSH_1 0.0
STRAIGHT 0.004663826
LOW_TWO_PAIR 0.0
HIGH_ONE_PAIR 0.0
THREE_OF_A_KIND 0.0
STRAIGHT_1 0.0
FLUSH 0.0
LOW_ONE_PAIR 0.0
5555: 
THREE_OF_A_KIND 0.0
FLUSH_1 0.0
HIGH_TWO_PAIR 0.0
STRAIGHT_1 0.0
LOW_TWO_PAIR 0.0
LOW_ONE_PAIR 0.0
HIGH_CARD 0.0
HIGH_ONE_PAIR 0.0
To server: call 

river
SPADES 4 

inquire
7777 8020 2000 240 check 
6666 6160 2000 240 check 
5555 9840 2000 240 check 
8888 840 0 240 check 
total pot: 960 

7777: 
THREE_OF_A_KIND 0.0
HIGH_TWO_PAIR 0.11078325
HIGH_ONE_PAIR 0.013922597
STRAIGHT 0.0
FLUSH 0.0
LOW_ONE_PAIR 0.0
LOW_TWO_PAIR 0.0
6666: 
LOW_TWO_PAIR 0.0
THREE_OF_A_KIND 0.0
LOW_ONE_PAIR 0.0
STRAIGHT 0.029572649
HIGH_TWO_PAIR 0.017213559
FLUSH 0.0
HIGH_ONE_PAIR 0.0
5555: 
STRAIGHT 0.0
LOW_ONE_PAIR 0.0
THREE_OF_A_KIND 0.0
LOW_TWO_PAIR 0.0
HIGH_TWO_PAIR 0.0140738925
HIGH_ONE_PAIR 0.0
To server: call 

inquire
7777 8020 2000 240 fold 
6666 6160 2000 240 fold 
5555 8640 2000 1440 raise 
8888 840 0 240 check 
total pot: 2160 

5555: 
THREE_OF_A_KIND 0.0
FLUSH 0.023974871
HIGH_TWO_PAIR 0.0022479089
LOW_TWO_PAIR 0.0
LOW_ONE_PAIR 0.0
STRAIGHT 0.0
HIGH_ONE_PAIR 0.0
To server: all_in 

showdown
common/ 
CLUBS 3 
SPADES 3 
SPADES 8 
SPADES J 
SPADES 4 
/common 
2: 8888 CLUBS 8 DIAMONDS Q TWO_PAIR 
1: 5555 SPADES 5 HEARTS A FLUSH 

pot-win
5555: 3000 

game-over
